(igroup_meeting
GroupMeetings
p0
(dp1
S'_past'
p2
(dp3
cdatetime
date
p4
(S'\x07\xdf\x02\x0b'
p5
tp6
Rp7
(dp8
S'presenter'
p9
S'Stijn Fias'
p10
sS'chair'
p11
S'Diego Berrocal'
p12
sS'file'
p13
S''
p14
sS'title'
p15
S'Linear reasponse function and its applications in chemistry and physics'
p16
ssg4
(S'\x07\xdf\x03\x04'
p17
tp18
Rp19
(dp20
g9
S'Yi Lin'
p21
sg11
S'Marco Franco'
p22
sg13
g14
sg15
S'Dissecting bond formation of Palladium-ethene complexes'
p23
ssg4
(S'\x07\xdf\x04\x08'
p24
tp25
Rp26
(dp27
g9
S'Cristina Gonzalez'
p28
sg11
S'David Kim'
p29
sg13
g14
sg15
S'Electronic spectra of ThO and ThS'
p30
ssg4
(S'\x07\xdf\x02\x19'
p31
tp32
Rp33
(dp34
g9
S'Kasia Boguslawski'
p35
sg11
S'Yi Lin'
p36
sg13
g14
sg15
S'Not so short introduction to geminals'
p37
ssg4
(S'\x07\xdf\x04\x0f'
p38
tp39
Rp40
(dp41
g9
S'Derrick Yang'
p42
sg11
S'Ramon Miranda'
p43
sg13
g14
sg15
S'Flat plane condition and spin reactivity indicator for atoms and ions'
p44
ssg4
(S'\x07\xdf\x04\x01'
p45
tp46
Rp47
(dp48
S'presenter'
p49
g12
sg11
S'Cristina Gonzalez'
p50
sS'file'
p51
g14
sS'title'
p52
S'Python workshop'
p53
ssg4
(S'\x07\xdf\x02\x12'
p54
tp55
Rp56
(dp57
g9
S'Ramon Miranda'
p58
sg11
S'Chun Ying'
p59
sg13
g14
sg15
S'Fractional particle number and chemical reactivity'
p60
ssg4
(S'\x07\xdf\x03\x0b'
p61
tp62
Rp63
(dp64
g9
S'Sung Hong'
p65
sg11
S'Kasia Boguslawski'
p66
sg13
g14
sg15
S'Elucidating cation-cation interaction between uranyl cations'
p67
ssg4
(S'\x07\xdf\x02\x04'
p68
tp69
Rp70
(dp71
g9
S'Marco Franco'
p72
sg11
g50
sg13
g14
sg15
S'Chemical reactivity at finite temperatures'
p73
sssS'_presenters'
p74
(lp75
(igroup_meeting
Person
p76
(dp77
S'_email'
p78
S'theoretical.chemistry@gmail.com'
p79
sS'_dates'
p80
(lp81
sS'_dateschair'
p82
(lp83
sS'_futurechair'
p84
(lp85
sS'_future'
p86
(lp87
sS'_name'
p88
S'Paul Ayers'
p89
sS'_isaway'
p90
I01
sS'_position'
p91
S'professor'
p92
sba(igroup_meeting
Person
p93
(dp94
g78
S'katharina.boguslawski@gmail.com'
p95
sg80
(lp96
g33
asg82
(lp97
g4
(S'\x07\xdf\x03\x0b'
p98
tp99
Rp100
asg84
(lp101
sg86
(lp102
sg88
g35
sg90
I00
sg91
S'postdoc'
p103
sba(igroup_meeting
Person
p104
(dp105
g78
S'ptecmer@gmail.com'
p106
sg80
(lp107
sg82
(lp108
sg84
(lp109
g4
(S'\x07\xdf\x05\r'
p110
tp111
Rp112
asg86
(lp113
g4
(S'\x07\xdf\x04\x16'
p114
tp115
Rp116
asg88
S'Pawel Tecmer'
p117
sg90
I00
sg91
g103
sba(igroup_meeting
Person
p118
(dp119
g78
S'theoahmedkamel@gmail.com'
p120
sg80
(lp121
sg82
(lp122
sg84
(lp123
sg86
(lp124
sg88
S'Ahmed Kamel'
p125
sg90
I00
sg91
S'phd'
p126
sba(igroup_meeting
Person
p127
(dp128
g78
S'farnazhz@gmail.com'
p129
sg80
(lp130
sg82
(lp131
sg84
(lp132
g4
(S'\x07\xdf\x05\x06'
p133
tp134
Rp135
asg86
(lp136
g4
(S'\x07\xdf\x05\x14'
p137
tp138
Rp139
asg88
S'Farnaz Heidar Zadeh'
p140
sg90
I00
sg91
g126
sba(igroup_meeting
Person
p141
(dp142
g78
S'talcite@gmail.com'
p143
sg80
(lp144
sg82
(lp145
sg84
(lp146
g4
(S'\x07\xdf\x04\x1d'
p147
tp148
Rp149
asg86
(lp150
g4
(S'\x07\xdf\x05\x06'
p151
tp152
Rp153
asg88
S'Matt Chan'
p154
sg90
I00
sg91
g126
sba(igroup_meeting
Person
p155
(dp156
g78
S'crisbeth46@gmail.com'
p157
sg80
(lp158
g26
asg82
(lp159
g4
(S'\x07\xdf\x02\x04'
p160
tp161
Rp162
ag4
(S'\x07\xdf\x04\x01'
p163
tp164
Rp165
asg84
(lp166
sg86
(lp167
sg88
g28
sg90
I01
sg91
g126
sba(igroup_meeting
Person
p168
(dp169
g78
S'david.kim.91@gmail.com'
p170
sg80
(lp171
sg82
(lp172
g4
(S'\x07\xdf\x04\x08'
p173
tp174
Rp175
asg84
(lp176
sg86
(lp177
g4
(S'\x07\xdf\x04\x1d'
p178
tp179
Rp180
asg88
S'David Kim'
p181
sg90
I00
sg91
S'masters'
p182
sba(igroup_meeting
Person
p183
(dp184
g78
S'yxt1991@gmail.com'
p185
sg80
(lp186
g40
asg82
(lp187
sg84
(lp188
g4
(S'\x07\xdf\x04\x16'
p189
tp190
Rp191
asg86
(lp192
sg88
g42
sg90
I00
sg91
g182
sba(igroup_meeting
Person
p193
(dp194
g78
S'zhao229@mcmaster.ca'
p195
sg80
(lp196
g19
asg82
(lp197
g4
(S'\x07\xdf\x02\x19'
p198
tp199
Rp200
asg84
(lp201
sg86
(lp202
sg88
g21
sg90
I00
sg91
g182
sba(igroup_meeting
Person
p203
(dp204
g78
S'qimfranco@gmail.com'
p205
sg80
(lp206
g70
asg82
(lp207
g4
(S'\x07\xdf\x03\x04'
p208
tp209
Rp210
asg84
(lp211
sg86
(lp212
sg88
g72
sg90
I00
sg91
g103
sba(igroup_meeting
Person
p213
(dp214
g78
S'chunyingrong@gmail.com'
p215
sg80
(lp216
sg82
(lp217
g4
(S'\x07\xdf\x02\x12'
p218
tp219
Rp220
asg84
(lp221
g4
(S'\x07\xdf\x05\x1b'
p222
tp223
Rp224
asg86
(lp225
g4
(S'\x07\xdf\x05\r'
p226
tp227
Rp228
asg88
S'Chun Ying'
p229
sg90
I00
sg91
g126
sba(igroup_meeting
Person
p230
(dp231
g78
S'ramirandaq@gmail.com'
p232
sg80
(lp233
g56
asg82
(lp234
g4
(S'\x07\xdf\x04\x0f'
p235
tp236
Rp237
asg84
(lp238
sg86
(lp239
g4
(S'\x07\xdf\x05\x1b'
p240
tp241
Rp242
asg88
g58
sg90
I00
sg91
g126
sba(igroup_meeting
Person
p243
(dp244
g78
S'stijn.fias@gmail.com'
p245
sg80
(lp246
g7
asg82
(lp247
sg84
(lp248
sg86
(lp249
sg88
g10
sg90
I01
sg91
g103
sba(igroup_meeting
Person
p250
(dp251
g78
S'hongsw2@gmail.com'
p252
sg80
(lp253
g63
asg82
(lp254
sg84
(lp255
g4
(S'\x07\xdf\x05\x14'
p256
tp257
Rp258
asg86
(lp259
sg88
g65
sg90
I00
sg91
S'undergrad'
p260
sba(igroup_meeting
Person
p261
(dp262
g78
S'duperrc@mcmaster.ca'
p263
sg80
(lp264
sg82
(lp265
sg84
(lp266
sg86
(lp267
sg88
S'Corinne Duperrouzel'
p268
sg90
I01
sg91
g260
sba(igroup_meeting
Person
p269
(dp270
g78
S'anandpatel98@gmail.com'
p271
sg80
(lp272
sg82
(lp273
sg84
(lp274
sg86
(lp275
sg88
S'Anand Patel'
p276
sg90
I01
sg91
g260
sba(igroup_meeting
Person
p277
(dp278
g78
S'dumontns@mcmaster.ca'
p279
sg80
(lp280
sg82
(lp281
sg84
(lp282
sg86
(lp283
sg88
S'Nicole Dumont'
p284
sg90
I01
sg91
g260
sba(igroup_meeting
Person
p285
(dp286
g78
S'bigpauljohnson@gmail.com'
p287
sg80
(lp288
sg82
(lp289
sg84
(lp290
sg86
(lp291
sg88
S'Paul Johnson'
p292
sg90
I01
sg91
g103
sba(igroup_meeting
Person
p293
(dp294
g78
S'cestdiego@gmail.com'
p295
sg80
(lp296
g47
asg82
(lp297
g4
(S'\x07\xdf\x02\x0b'
p298
tp299
Rp300
asg84
(lp301
sg86
(lp302
sg88
g12
sg90
I01
sg91
S'undergrad'
p303
sbasg86
(dp304
g139
(dp305
g9
g140
sg11
S'Sung Hong'
p306
sg13
g14
sg15
g14
ssg116
(dp307
g9
g117
sg11
S'Derrick Yang'
p308
sg13
g14
sg15
g14
ssg180
(dp309
g9
g181
sg11
S'Matt Chan'
p310
sg13
g14
sg15
g14
ssg228
(dp311
g9
g229
sg11
S'Pawel Tecmer'
p312
sg13
g14
sg15
g14
ssg153
(dp313
g9
g154
sg11
S'Farnaz Heidar Zadeh'
p314
sg13
g14
sg15
g14
ssg242
(dp315
g9
g58
sg11
g59
sg13
g14
sg15
g14
sssb.