(igroup_meeting
GroupMeetings
p0
(dp1
S'_past'
p2
(dp3
cdatetime
date
p4
(S'\x07\xdf\x02\x0b'
p5
tp6
Rp7
(dp8
S'presenter'
p9
S'Stijn Fias'
p10
sS'chair'
p11
S'Diego Berrocal'
p12
sS'file'
p13
S''
p14
sS'title'
p15
S'Linear reasponse function and its applications in chemistry and physics'
p16
ssg4
(S'\x07\xdf\x03\x04'
p17
tp18
Rp19
(dp20
g9
S'Yi Lin'
p21
sg11
S'Marco Franco'
p22
sg13
g14
sg15
S'Dissecting bond formation of Palladium-ethene complexes'
p23
ssg4
(S'\x07\xdf\x04\x08'
p24
tp25
Rp26
(dp27
g9
S'Cristina Gonzalez'
p28
sg11
S'David Kim'
p29
sg13
g14
sg15
S'Electronic spectra of ThO and ThS'
p30
ssg4
(S'\x07\xdf\x02\x19'
p31
tp32
Rp33
(dp34
g9
S'Kasia Boguslawski'
p35
sg11
S'Yi Lin'
p36
sg13
g14
sg15
S'Not so short introduction to geminals'
p37
ssg4
(S'\x07\xdf\x04\x0f'
p38
tp39
Rp40
(dp41
g9
S'Derrick Yang'
p42
sg11
S'Ramon Miranda'
p43
sg13
g14
sg15
S'Flat plane condition and spin reactivity indicator for atoms and ions'
p44
ssg4
(S'\x07\xdf\x04\x01'
p45
tp46
Rp47
(dp48
S'presenter'
p49
g12
sg11
S'Cristina Gonzalez'
p50
sS'file'
p51
g14
sS'title'
p52
S'Python workshop'
p53
ssg4
(S'\x07\xdf\x02\x12'
p54
tp55
Rp56
(dp57
g9
S'Ramon Miranda'
p58
sg11
S'Chun Ying'
p59
sg13
g14
sg15
S'Fractional particle number and chemical reactivity'
p60
ssg4
(S'\x07\xdf\x03\x0b'
p61
tp62
Rp63
(dp64
g9
S'Sung Hong'
p65
sg11
S'Kasia Boguslawski'
p66
sg13
g14
sg15
S'Elucidating cation-cation interaction between uranyl cations'
p67
ssg4
(S'\x07\xdf\x02\x04'
p68
tp69
Rp70
(dp71
g9
S'Marco Franco'
p72
sg11
g50
sg13
g14
sg15
S'Chemical reactivity at finite temperatures'
p73
sssS'_presenters'
p74
(lp75
(igroup_meeting
Person
p76
(dp77
S'_dates'
p78
(lp79
sS'_dateschair'
p80
(lp81
sS'_futurechair'
p82
(lp83
sS'_future'
p84
(lp85
sS'_name'
p86
S'Paul Ayers'
p87
sS'_isaway'
p88
I01
sS'_position'
p89
S'professor'
p90
sba(igroup_meeting
Person
p91
(dp92
g78
(lp93
g33
asg80
(lp94
g4
(S'\x07\xdf\x03\x0b'
p95
tp96
Rp97
asg82
(lp98
sg84
(lp99
sg86
g35
sg88
I00
sg89
S'postdoc'
p100
sba(igroup_meeting
Person
p101
(dp102
g78
(lp103
sg80
(lp104
sg82
(lp105
g4
(S'\x07\xdf\x05\r'
p106
tp107
Rp108
asg84
(lp109
g4
(S'\x07\xdf\x04\x16'
p110
tp111
Rp112
asg86
S'Pawel Tecmer'
p113
sg88
I00
sg89
g100
sba(igroup_meeting
Person
p114
(dp115
g78
(lp116
sg80
(lp117
sg82
(lp118
sg84
(lp119
sg86
S'Ahmed Kamel'
p120
sg88
I00
sg89
S'phd'
p121
sba(igroup_meeting
Person
p122
(dp123
g78
(lp124
sg80
(lp125
sg82
(lp126
g4
(S'\x07\xdf\x05\x06'
p127
tp128
Rp129
asg84
(lp130
g4
(S'\x07\xdf\x05\x14'
p131
tp132
Rp133
asg86
S'Farnaz Heidar Zadeh'
p134
sg88
I00
sg89
g121
sba(igroup_meeting
Person
p135
(dp136
g78
(lp137
sg80
(lp138
sg82
(lp139
g4
(S'\x07\xdf\x04\x1d'
p140
tp141
Rp142
asg84
(lp143
g4
(S'\x07\xdf\x05\x06'
p144
tp145
Rp146
asg86
S'Matt Chan'
p147
sg88
I00
sg89
g121
sba(igroup_meeting
Person
p148
(dp149
g78
(lp150
g26
asg80
(lp151
g4
(S'\x07\xdf\x02\x04'
p152
tp153
Rp154
ag4
(S'\x07\xdf\x04\x01'
p155
tp156
Rp157
asg82
(lp158
sg84
(lp159
sg86
g28
sg88
I01
sg89
g121
sba(igroup_meeting
Person
p160
(dp161
g78
(lp162
sg80
(lp163
g4
(S'\x07\xdf\x04\x08'
p164
tp165
Rp166
asg82
(lp167
sg84
(lp168
g4
(S'\x07\xdf\x04\x1d'
p169
tp170
Rp171
asg86
S'David Kim'
p172
sg88
I00
sg89
S'masters'
p173
sba(igroup_meeting
Person
p174
(dp175
g78
(lp176
g40
asg80
(lp177
sg82
(lp178
g4
(S'\x07\xdf\x04\x16'
p179
tp180
Rp181
asg84
(lp182
sg86
g42
sg88
I00
sg89
g173
sba(igroup_meeting
Person
p183
(dp184
g78
(lp185
g19
asg80
(lp186
g4
(S'\x07\xdf\x02\x19'
p187
tp188
Rp189
asg82
(lp190
sg84
(lp191
sg86
g21
sg88
I00
sg89
g173
sba(igroup_meeting
Person
p192
(dp193
g78
(lp194
g70
asg80
(lp195
g4
(S'\x07\xdf\x03\x04'
p196
tp197
Rp198
asg82
(lp199
sg84
(lp200
sg86
g72
sg88
I00
sg89
g100
sba(igroup_meeting
Person
p201
(dp202
g78
(lp203
sg80
(lp204
g4
(S'\x07\xdf\x02\x12'
p205
tp206
Rp207
asg82
(lp208
g4
(S'\x07\xdf\x05\x1b'
p209
tp210
Rp211
asg84
(lp212
g4
(S'\x07\xdf\x05\r'
p213
tp214
Rp215
asg86
S'Chun Ying'
p216
sg88
I00
sg89
g121
sba(igroup_meeting
Person
p217
(dp218
g78
(lp219
g56
asg80
(lp220
g4
(S'\x07\xdf\x04\x0f'
p221
tp222
Rp223
asg82
(lp224
sg84
(lp225
g4
(S'\x07\xdf\x05\x1b'
p226
tp227
Rp228
asg86
g58
sg88
I00
sg89
g121
sba(igroup_meeting
Person
p229
(dp230
g78
(lp231
g7
asg80
(lp232
sg82
(lp233
sg84
(lp234
sg86
g10
sg88
I01
sg89
g100
sba(igroup_meeting
Person
p235
(dp236
g78
(lp237
g63
asg80
(lp238
sg82
(lp239
g4
(S'\x07\xdf\x05\x14'
p240
tp241
Rp242
asg84
(lp243
sg86
g65
sg88
I00
sg89
S'undergrad'
p244
sba(igroup_meeting
Person
p245
(dp246
g78
(lp247
sg80
(lp248
sg82
(lp249
sg84
(lp250
sg86
S'Corinne Duperrouzel'
p251
sg88
I01
sg89
g244
sba(igroup_meeting
Person
p252
(dp253
g78
(lp254
sg80
(lp255
sg82
(lp256
sg84
(lp257
sg86
S'Anand Patel'
p258
sg88
I01
sg89
g244
sba(igroup_meeting
Person
p259
(dp260
g78
(lp261
sg80
(lp262
sg82
(lp263
sg84
(lp264
sg86
S'Nicole Dumont'
p265
sg88
I01
sg89
g244
sba(igroup_meeting
Person
p266
(dp267
g78
(lp268
sg80
(lp269
sg82
(lp270
sg84
(lp271
sg86
S'Paul Johnson'
p272
sg88
I01
sg89
g100
sba(igroup_meeting
Person
p273
(dp274
g78
(lp275
g47
asg80
(lp276
g4
(S'\x07\xdf\x02\x0b'
p277
tp278
Rp279
asg82
(lp280
sg84
(lp281
sg86
g12
sg88
I01
sg89
S'undergrad'
p282
sbasg84
(dp283
g133
(dp284
g9
g134
sg11
S'Sung Hong'
p285
sg13
g14
sg15
g14
ssg112
(dp286
g9
g113
sg11
S'Derrick Yang'
p287
sg13
g14
sg15
g14
ssg171
(dp288
g9
g172
sg11
S'Matt Chan'
p289
sg13
g14
sg15
g14
ssg215
(dp290
g9
g216
sg11
S'Pawel Tecmer'
p291
sg13
g14
sg15
g14
ssg146
(dp292
g9
g147
sg11
S'Farnaz Heidar Zadeh'
p293
sg13
g14
sg15
g14
ssg228
(dp294
g9
g58
sg11
g59
sg13
g14
sg15
g14
sssb.