(igroup_meeting
GroupMeetings
p0
(dp1
S'_past'
p2
(dp3
cdatetime
date
p4
(S'\x07\xdf\x02\x0b'
p5
tp6
Rp7
(dp8
S'presenter'
p9
S'Stijn Fias'
p10
sS'chair'
p11
S'Diego Berrocal'
p12
sS'file'
p13
S''
p14
sS'title'
p15
S'Linear reasponse function and its applications in chemistry and physics'
p16
ssg4
(S'\x07\xdf\x04\x16'
p17
tp18
Rp19
(dp20
S'presenter'
p21
S'Pawel Tecmer'
p22
sS'chair'
p23
S'Yi Lin'
p24
sS'file'
p25
g14
sS'title'
p26
S'Orbital Entanglement in Quantum Chemistry'
p27
ssg4
(S'\x07\xdf\x03\x04'
p28
tp29
Rp30
(dp31
g9
S'Yi Lin'
p32
sg11
S'Marco Franco'
p33
sg13
g14
sg15
S'Dissecting bond formation of Palladium-ethene complexes'
p34
ssg4
(S'\x07\xdf\x04\x08'
p35
tp36
Rp37
(dp38
g9
S'Cristina Gonzalez'
p39
sg11
S'David Kim'
p40
sg13
g14
sg15
S'Electronic spectra of ThO and ThS'
p41
ssg4
(S'\x07\xdf\x02\x19'
p42
tp43
Rp44
(dp45
g9
S'Kasia Boguslawski'
p46
sg11
S'Yi Lin'
p47
sg13
g14
sg15
S'Not so short introduction to geminals'
p48
ssg4
(S'\x07\xdf\x04\x0f'
p49
tp50
Rp51
(dp52
g9
S'Derrick Yang'
p53
sg11
S'Ramon Miranda'
p54
sg13
g14
sg15
S'Flat plane condition and spin reactivity indicator for atoms and ions'
p55
ssg4
(S'\x07\xdf\x04\x01'
p56
tp57
Rp58
(dp59
S'presenter'
p60
g12
sg11
S'Cristina Gonzalez'
p61
sS'file'
p62
g14
sS'title'
p63
S'Python workshop'
p64
ssg4
(S'\x07\xdf\x02\x12'
p65
tp66
Rp67
(dp68
g9
S'Ramon Miranda'
p69
sg11
S'Chun Ying'
p70
sg13
g14
sg15
S'Fractional particle number and chemical reactivity'
p71
ssg4
(S'\x07\xdf\x03\x0b'
p72
tp73
Rp74
(dp75
g9
S'Sung Hong'
p76
sg11
S'Kasia Boguslawski'
p77
sg13
g14
sg15
S'Elucidating cation-cation interaction between uranyl cations'
p78
ssg4
(S'\x07\xdf\x02\x04'
p79
tp80
Rp81
(dp82
g9
S'Marco Franco'
p83
sg11
g61
sg13
g14
sg15
S'Chemical reactivity at finite temperatures'
p84
sssS'_presenters'
p85
(lp86
(igroup_meeting
Person
p87
(dp88
S'_email'
p89
S'theoretical.chemistry@gmail.com'
p90
sS'_dates'
p91
(lp92
sS'_dateschair'
p93
(lp94
sS'_futurechair'
p95
(lp96
sS'_future'
p97
(lp98
sS'_name'
p99
S'Paul Ayers'
p100
sS'_isaway'
p101
I01
sS'_position'
p102
S'professor'
p103
sba(igroup_meeting
Person
p104
(dp105
g89
S'katharina.boguslawski@gmail.com'
p106
sg91
(lp107
g44
asg93
(lp108
g4
(S'\x07\xdf\x03\x0b'
p109
tp110
Rp111
asg95
(lp112
sg97
(lp113
sg99
g46
sg101
I00
sg102
S'postdoc'
p114
sba(igroup_meeting
Person
p115
(dp116
g89
S'ptecmer@gmail.com'
p117
sg91
(lp118
g19
asg93
(lp119
sg95
(lp120
g4
(S'\x07\xdf\x05\r'
p121
tp122
Rp123
asg97
(lp124
sg99
g22
sg101
I00
sg102
g114
sba(igroup_meeting
Person
p125
(dp126
g89
S'theoahmedkamel@gmail.com'
p127
sg91
(lp128
sg93
(lp129
sg95
(lp130
sg97
(lp131
sg99
S'Ahmed Kamel'
p132
sg101
I00
sg102
S'phd'
p133
sba(igroup_meeting
Person
p134
(dp135
g89
S'farnazhz@gmail.com'
p136
sg91
(lp137
sg93
(lp138
sg95
(lp139
g4
(S'\x07\xdf\x05\x06'
p140
tp141
Rp142
asg97
(lp143
g4
(S'\x07\xdf\x05\x14'
p144
tp145
Rp146
asg99
S'Farnaz Heidar Zadeh'
p147
sg101
I00
sg102
g133
sba(igroup_meeting
Person
p148
(dp149
g89
S'talcite@gmail.com'
p150
sg91
(lp151
sg93
(lp152
sg95
(lp153
g4
(S'\x07\xdf\x04\x1d'
p154
tp155
Rp156
asg97
(lp157
g4
(S'\x07\xdf\x05\x06'
p158
tp159
Rp160
asg99
S'Matt Chan'
p161
sg101
I00
sg102
g133
sba(igroup_meeting
Person
p162
(dp163
g89
S'crisbeth46@gmail.com'
p164
sg91
(lp165
g37
asg93
(lp166
g4
(S'\x07\xdf\x02\x04'
p167
tp168
Rp169
ag4
(S'\x07\xdf\x04\x01'
p170
tp171
Rp172
asg95
(lp173
sg97
(lp174
sg99
g39
sg101
I01
sg102
g133
sba(igroup_meeting
Person
p175
(dp176
g89
S'david.kim.91@gmail.com'
p177
sg91
(lp178
sg93
(lp179
g4
(S'\x07\xdf\x04\x08'
p180
tp181
Rp182
asg95
(lp183
sg97
(lp184
g4
(S'\x07\xdf\x04\x1d'
p185
tp186
Rp187
asg99
S'David Kim'
p188
sg101
I00
sg102
S'masters'
p189
sba(igroup_meeting
Person
p190
(dp191
g89
S'yxt1991@gmail.com'
p192
sg91
(lp193
g51
asg93
(lp194
sg95
(lp195
g4
(S'\x07\xdf\x04\x16'
p196
tp197
Rp198
asg97
(lp199
sg99
g53
sg101
I00
sg102
g189
sba(igroup_meeting
Person
p200
(dp201
g89
S'zhao229@mcmaster.ca'
p202
sg91
(lp203
g30
asg93
(lp204
g4
(S'\x07\xdf\x02\x19'
p205
tp206
Rp207
ag19
asg95
(lp208
sg97
(lp209
sg99
g32
sg101
I00
sg102
g189
sba(igroup_meeting
Person
p210
(dp211
g89
S'qimfranco@gmail.com'
p212
sg91
(lp213
g81
asg93
(lp214
g4
(S'\x07\xdf\x03\x04'
p215
tp216
Rp217
asg95
(lp218
sg97
(lp219
sg99
g83
sg101
I00
sg102
g114
sba(igroup_meeting
Person
p220
(dp221
g89
S'chunyingrong@gmail.com'
p222
sg91
(lp223
sg93
(lp224
g4
(S'\x07\xdf\x02\x12'
p225
tp226
Rp227
asg95
(lp228
g4
(S'\x07\xdf\x05\x1b'
p229
tp230
Rp231
asg97
(lp232
g4
(S'\x07\xdf\x05\r'
p233
tp234
Rp235
asg99
S'Chun Ying'
p236
sg101
I00
sg102
g133
sba(igroup_meeting
Person
p237
(dp238
g89
S'ramirandaq@gmail.com'
p239
sg91
(lp240
g67
asg93
(lp241
g4
(S'\x07\xdf\x04\x0f'
p242
tp243
Rp244
asg95
(lp245
sg97
(lp246
g4
(S'\x07\xdf\x05\x1b'
p247
tp248
Rp249
asg99
g69
sg101
I00
sg102
g133
sba(igroup_meeting
Person
p250
(dp251
g89
S'stijn.fias@gmail.com'
p252
sg91
(lp253
g7
asg93
(lp254
sg95
(lp255
sg97
(lp256
sg99
g10
sg101
I01
sg102
g114
sba(igroup_meeting
Person
p257
(dp258
g89
S'hongsw2@gmail.com'
p259
sg91
(lp260
g74
asg93
(lp261
sg95
(lp262
g4
(S'\x07\xdf\x05\x14'
p263
tp264
Rp265
asg97
(lp266
sg99
g76
sg101
I00
sg102
S'undergrad'
p267
sba(igroup_meeting
Person
p268
(dp269
g89
S'duperrc@mcmaster.ca'
p270
sg91
(lp271
sg93
(lp272
sg95
(lp273
sg97
(lp274
sg99
S'Corinne Duperrouzel'
p275
sg101
I01
sg102
g267
sba(igroup_meeting
Person
p276
(dp277
g89
S'anandpatel98@gmail.com'
p278
sg91
(lp279
sg93
(lp280
sg95
(lp281
sg97
(lp282
sg99
S'Anand Patel'
p283
sg101
I01
sg102
g267
sba(igroup_meeting
Person
p284
(dp285
g89
S'dumontns@mcmaster.ca'
p286
sg91
(lp287
sg93
(lp288
sg95
(lp289
sg97
(lp290
sg99
S'Nicole Dumont'
p291
sg101
I01
sg102
g267
sba(igroup_meeting
Person
p292
(dp293
g89
S'bigpauljohnson@gmail.com'
p294
sg91
(lp295
sg93
(lp296
sg95
(lp297
sg97
(lp298
sg99
S'Paul Johnson'
p299
sg101
I01
sg102
g114
sba(igroup_meeting
Person
p300
(dp301
g89
S'cestdiego@gmail.com'
p302
sg91
(lp303
g58
asg93
(lp304
g4
(S'\x07\xdf\x02\x0b'
p305
tp306
Rp307
asg95
(lp308
sg97
(lp309
sg99
g12
sg101
I01
sg102
S'undergrad'
p310
sbasg97
(dp311
g146
(dp312
g9
g147
sg11
S'Sung Hong'
p313
sg13
g14
sg15
g14
ssg187
(dp314
g9
g188
sg11
S'Matt Chan'
p315
sg13
g14
sg15
S'Breadth over Depth: Quasiatomic orbital transformation, VB, and maybe AIM'
p316
ssg235
(dp317
g9
g236
sg11
S'Pawel Tecmer'
p318
sg13
g14
sg15
g14
ssg160
(dp319
g9
g161
sg11
S'Farnaz Heidar Zadeh'
p320
sg13
g14
sg15
g14
ssg249
(dp321
g9
g69
sg11
g70
sg13
g14
sg15
g14
sssb.