(igroup_meeting
GroupMeetings
p0
(dp1
S'_past'
p2
(dp3
cdatetime
date
p4
(S'\x07\xdf\x02\x0b'
p5
tp6
Rp7
(dp8
S'presenter'
p9
S'Stijn Fias'
p10
sS'file'
p11
S''
p12
sS'title'
p13
S'Linear reasponse function and its applications in chemistry and physics'
p14
ssg4
(S'\x07\xdf\x03\x04'
p15
tp16
Rp17
(dp18
g9
S'Yi Lin'
p19
sg11
g12
sg13
S'Dissecting bond formation of Palladium-ethene complexes'
p20
ssg4
(S'\x07\xdf\x04\x08'
p21
tp22
Rp23
(dp24
g9
S'Cristina Gonzalez'
p25
sg11
g12
sg13
S'Electronic spectra of ThO and ThS'
p26
ssg4
(S'\x07\xdf\x02\x19'
p27
tp28
Rp29
(dp30
g9
S'Kasia Boguslawski'
p31
sg11
g12
sg13
S'Not so short introduction to geminals'
p32
ssg4
(S'\x07\xdf\x04\x0f'
p33
tp34
Rp35
(dp36
g9
S'Derrick Yang'
p37
sg11
g12
sg13
S'Flat plane condition and spin reactivity indicator for atoms and ions'
p38
ssg4
(S'\x07\xdf\x02\x12'
p39
tp40
Rp41
(dp42
g9
S'Ramon Miranda'
p43
sg11
g12
sg13
S'Fractional particle number and chemical reactivity'
p44
ssg4
(S'\x07\xdf\x03\x0b'
p45
tp46
Rp47
(dp48
g9
S'Sung Hong'
p49
sg11
g12
sg13
S'Elucidating cation-cation interaction between uranyl cations'
p50
ssg4
(S'\x07\xdf\x02\x04'
p51
tp52
Rp53
(dp54
g9
S'Marco Franco'
p55
sg11
g12
sg13
S'Chemical reactivity at finite temperatures'
p56
sssS'_presenters'
p57
(lp58
(igroup_meeting
Person
p59
(dp60
S'_position'
p61
S'professor'
p62
sS'_dates'
p63
(lp64
sS'_future'
p65
(lp66
sS'_isaway'
p67
I00
sS'_name'
p68
S'Paul Ayers'
p69
sba(igroup_meeting
Person
p70
(dp71
g61
S'postdoc'
p72
sg63
(lp73
g29
asg65
(lp74
sg67
I00
sg68
g31
sba(igroup_meeting
Person
p75
(dp76
g61
g72
sg63
(lp77
sg65
(lp78
g4
(S'\x07\xdf\x04\x16'
p79
tp80
Rp81
asg67
I00
sg68
S'Pawel Tecmer'
p82
sba(igroup_meeting
Person
p83
(dp84
g61
S'phd'
p85
sg63
(lp86
sg65
(lp87
sg67
I00
sg68
S'Ahmed Kamel'
p88
sba(igroup_meeting
Person
p89
(dp90
g61
g85
sg63
(lp91
sg65
(lp92
g4
(S'\x07\xdf\x05\r'
p93
tp94
Rp95
asg67
I00
sg68
S'Farnaz Heidar Zadeh'
p96
sba(igroup_meeting
Person
p97
(dp98
g61
g85
sg63
(lp99
sg65
(lp100
g4
(S'\x07\xdf\x05\x06'
p101
tp102
Rp103
asg67
I00
sg68
S'Matt Chan'
p104
sba(igroup_meeting
Person
p105
(dp106
g61
g85
sg63
(lp107
g23
asg65
(lp108
sg67
I01
sg68
g25
sba(igroup_meeting
Person
p109
(dp110
g61
S'masters'
p111
sg63
(lp112
sg65
(lp113
g4
(S'\x07\xdf\x04\x1d'
p114
tp115
Rp116
asg67
I00
sg68
S'David Kim'
p117
sba(igroup_meeting
Person
p118
(dp119
g61
g111
sg63
(lp120
g35
asg65
(lp121
sg67
I00
sg68
g37
sba(igroup_meeting
Person
p122
(dp123
g61
g111
sg63
(lp124
g17
asg65
(lp125
sg67
I00
sg68
g19
sba(igroup_meeting
Person
p126
(dp127
g61
g72
sg63
(lp128
g53
asg65
(lp129
sg67
I00
sg68
g55
sba(igroup_meeting
Person
p130
(dp131
g61
g85
sg63
(lp132
sg65
(lp133
sg67
I00
sg68
S'Chun Ying'
p134
sba(igroup_meeting
Person
p135
(dp136
g61
g85
sg63
(lp137
g41
asg65
(lp138
sg67
I00
sg68
g43
sba(igroup_meeting
Person
p139
(dp140
g61
g72
sg63
(lp141
g7
asg65
(lp142
sg67
I01
sg68
g10
sba(igroup_meeting
Person
p143
(dp144
g61
S'undergrad'
p145
sg63
(lp146
g47
asg65
(lp147
sg67
I00
sg68
g49
sba(igroup_meeting
Person
p148
(dp149
g61
g145
sg63
(lp150
sg65
(lp151
sg67
I01
sg68
S'Corinne Duperrouzel'
p152
sba(igroup_meeting
Person
p153
(dp154
g61
g145
sg63
(lp155
sg65
(lp156
sg67
I01
sg68
S'Anand Patel'
p157
sba(igroup_meeting
Person
p158
(dp159
g61
g145
sg63
(lp160
sg65
(lp161
sg67
I01
sg68
S'Nicole Dumont'
p162
sba(igroup_meeting
Person
p163
(dp164
g61
g72
sg63
(lp165
sg65
(lp166
sg67
I01
sg68
S'Paul Johnson'
p167
sbasg65
(dp168
g116
(dp169
g9
g117
sg11
g12
sg13
g12
ssg95
(dp170
g9
g96
sg11
g12
sg13
g12
ssg103
(dp171
g9
g104
sg11
g12
sg13
g12
ssg81
(dp172
g9
g82
sg11
g12
sg13
g12
sssb.