ccopy_reg
_reconstructor
p0
(cgroup_meeting
GroupMeetings
p1
c__builtin__
object
p2
Ntp3
Rp4
(dp5
S'_past_presentations'
p6
g0
(cpresentation
PresentationStorage
p7
g2
Ntp8
Rp9
(dp10
S'_presentations'
p11
(lp12
g0
(cpresentation
Presentation
p13
g2
Ntp14
Rp15
(dp16
S'_chair'
p17
(iperson
Person
p18
(dp19
S'_email'
p20
S'ramirandaq@gmail.com'
p21
sS'_dates_presented'
p22
(lp23
cdatetime
date
p24
(S'\x07\xdf\x02\x12'
p25
tp26
Rp27
ag24
(S'\x07\xdf\x05\x1b'
p28
tp29
Rp30
asS'_name'
p31
S'Ramon Miranda'
p32
sS'_dates_to_chair'
p33
(lp34
sS'_dates_chaired'
p35
(lp36
g24
(S'\x07\xdf\x04\x0f'
p37
tp38
Rp39
asS'_dates_to_present'
p40
(lp41
sS'_dates_away'
p42
(lp43
(g24
(S'\x07\xdf\x06\x0f'
p44
tp45
Rp46
tp47
asS'_position'
p48
S'phd'
p49
sbsS'_presenter'
p50
(iperson
Person
p51
(dp52
g20
S'yxt1991@gmail.com'
p53
sg22
(lp54
g24
(S'\x07\xdf\x04\x0f'
p55
tp56
Rp57
asg31
S'Derrick Yang'
p58
sg33
(lp59
g24
(S'\x07\xdf\n\x1b'
p60
tp61
Rp62
ag24
(S'\x07\xe0\x01\x05'
p63
tp64
Rp65
asg35
(lp66
sg40
(lp67
g24
(S'\x07\xdf\x0c\x01'
p68
tp69
Rp70
asg42
(lp71
sg48
S'masters'
p72
sbsS'_title'
p73
S'Flat plane condition and spin reactivity indicator for atoms and ions'
p74
sS'_date'
p75
g57
sbag0
(g13
g2
Ntp76
Rp77
(dp78
g17
(iperson
Person
p79
(dp80
g20
S'cestdiego@gmail.com'
p81
sg22
(lp82
g24
(S'\x07\xdf\x04\x01'
p83
tp84
Rp85
asg31
S'Diego Berrocal'
p86
sg33
(lp87
sg35
(lp88
g24
(S'\x07\xdf\x02\x0b'
p89
tp90
Rp91
asg40
(lp92
sg42
(lp93
(g24
(S'\x07\xdf\x04\x13'
p94
tp95
Rp96
tp97
asg48
S'undergrad'
p98
sbsg50
(iperson
Person
p99
(dp100
g20
S'stijn.fias@gmail.com'
p101
sg22
(lp102
g24
(S'\x07\xdf\x02\x0b'
p103
tp104
Rp105
asg31
S'Stijn Fias'
p106
sg33
(lp107
sg35
(lp108
sg40
(lp109
sg42
(lp110
(g24
(S'\x07\xdf\x05\x04'
p111
tp112
Rp113
tp114
asg48
S'postdoc'
p115
sbsg73
S'Linear reasponse function and its applications in chemistry and physics'
p116
sg75
g105
sbag0
(g13
g2
Ntp117
Rp118
(dp119
g17
(iperson
Person
p120
(dp121
g20
S'crisbeth46@gmail.com'
p122
sg22
(lp123
g24
(S'\x07\xdf\x04\x08'
p124
tp125
Rp126
ag24
(S'\x07\xdf\t\x10'
p127
tp128
Rp129
asg31
S'Cristina Gonzalez'
p130
sg33
(lp131
g24
(S'\x07\xdf\n\r'
p132
tp133
Rp134
ag24
(S'\x07\xdf\t\x1d'
p135
tp136
Rp137
ag24
(S'\x07\xdf\x0c\x1d'
p138
tp139
Rp140
asg35
(lp141
g24
(S'\x07\xdf\x02\x04'
p142
tp143
Rp144
ag24
(S'\x07\xdf\x04\x01'
p145
tp146
Rp147
asg40
(lp148
g24
(S'\x07\xdf\x0b\x18'
p149
tp150
Rp151
ag24
(S'\x07\xe0\x01\x0c'
p152
tp153
Rp154
asg42
(lp155
(g24
(S'\x07\xdf\n\n'
p156
tp157
Rp158
g24
(S'\x07\xdf\n\x12'
p159
tp160
Rp161
tp162
asg48
S'phd'
p163
sbsg50
g79
sg73
S'Python workshop'
p164
sg75
g85
sbag0
(g13
g2
Ntp165
Rp166
(dp167
g17
Nsg50
(iperson
Person
p168
(dp169
g20
S'theoretical.chemistry@gmail.com'
p170
sg22
(lp171
g24
(S'\x07\xdf\t\t'
p172
tp173
Rp174
asg31
S'Paul Ayers'
p175
sg33
(lp176
g24
(S'\x07\xdf\n\x06'
p177
tp178
Rp179
asg35
(lp180
g24
(S'\x07\xdf\x08\x14'
p181
tp182
Rp183
asg40
(lp184
sg42
(lp185
(g24
(S'\x07\xdf\t\n'
p186
tp187
Rp188
g24
(S'\x07\xdf\t\x14'
p189
tp190
Rp191
tp192
a(g24
(S'\x07\xdf\t\x17'
p193
tp194
Rp195
g24
(S'\x07\xdf\n\x07'
p196
tp197
Rp198
tp199
ag199
ag199
ag199
ag199
ag199
ag199
ag199
asg48
S'professor'
p200
sbsg73
S'Outline of the Projects in Ayers Group'
p201
sg75
g174
sbag0
(g13
g2
Ntp202
Rp203
(dp204
g17
Nsg50
(iperson
Person
p205
(dp206
g20
S'duperrc@mcmaster.ca'
p207
sg22
(lp208
g24
(S'\x07\xdf\x08\x1a'
p209
tp210
Rp211
ag24
(S'\x07\xdf\x08\x19'
p212
tp213
Rp214
asg31
S'Corinne Duperrouzel'
p215
sg33
(lp216
sg35
(lp217
sg40
(lp218
sg42
(lp219
(g24
(S'\x07\xdf\t\x01'
p220
tp221
Rp222
tp223
asg48
S'undergrad'
p224
sbsg73
S'Multi-Reference Nature of Plutonium Oxides'
p225
sg75
g211
sbag0
(g13
g2
Ntp226
Rp227
(dp228
g17
(iperson
Person
p229
(dp230
g20
S'qimfranco@gmail.com'
p231
sg22
(lp232
g24
(S'\x07\xdf\x02\x04'
p233
tp234
Rp235
asg31
S'Marco Franco'
p236
sg33
(lp237
g24
(S'\x07\xdf\x0b\x03'
p238
tp239
Rp240
ag24
(S'\x07\xdf\x0c\x16'
p241
tp242
Rp243
asg35
(lp244
g24
(S'\x07\xdf\x03\x04'
p245
tp246
Rp247
asg40
(lp248
g24
(S'\x07\xdf\n\r'
p249
tp250
Rp251
ag24
(S'\x07\xdf\x0c\x08'
p252
tp253
Rp254
asg42
(lp255
sg48
S'postdoc'
p256
sbsg50
(iperson
Person
p257
(dp258
g20
S'zhao229@mcmaster.ca'
p259
sg22
(lp260
g24
(S'\x07\xdf\x03\x04'
p261
tp262
Rp263
asg31
S'Yilin Zhao'
p264
sg33
(lp265
g70
asg35
(lp266
g24
(S'\x07\xdf\x02\x19'
p267
tp268
Rp269
ag24
(S'\x07\xdf\x04\x16'
p270
tp271
Rp272
asg40
(lp273
g137
ag24
(S'\x07\xdf\x0b\n'
p274
tp275
Rp276
ag24
(S'\x07\xe0\x02\x02'
p277
tp278
Rp279
asg42
(lp280
sg48
S'masters'
p281
sbsg73
S'Dissecting bond formation of Palladium-ethene complexes'
p282
sg75
g263
sbag0
(g13
g2
Ntp283
Rp284
(dp285
g17
(iperson
Person
p286
(dp287
g20
S'talcite@gmail.com'
p288
sg22
(lp289
g24
(S'\x07\xdf\x05\x06'
p290
tp291
Rp292
asg31
S'Matt Chan'
p293
sg33
(lp294
g276
ag279
asg35
(lp295
g24
(S'\x07\xdf\x04\x1d'
p296
tp297
Rp298
asg40
(lp299
g62
ag65
asg42
(lp300
sg48
S'phd'
p301
sbsg50
(iperson
Person
p302
(dp303
g20
S'david.kim.91@gmail.com'
p304
sg22
(lp305
g24
(S'\x07\xdf\x04\x1d'
p306
tp307
Rp308
asg31
S'David Kim'
p309
sg33
(lp310
g24
(S'\x07\xdf\n\r'
p311
tp312
Rp313
ag24
(S'\x07\xdf\x0c\x0f'
p314
tp315
Rp316
asg35
(lp317
g24
(S'\x07\xdf\x04\x08'
p318
tp319
Rp320
asg40
(lp321
g240
ag24
(S'\x07\xe0\x01\x1a'
p322
tp323
Rp324
asg42
(lp325
sg48
S'masters'
p326
sbsg73
S'Beating a Horse to Death: Quasiatomic Orbitals'
p327
sg75
g308
sbag0
(g13
g2
Ntp328
Rp329
(dp330
g17
(iperson
Person
p331
(dp332
g20
S'ptecmer@gmail.com'
p333
sg22
(lp334
g24
(S'\x07\xdf\x04\x16'
p335
tp336
Rp337
asg31
S'Pawel Tecmer'
p338
sg33
(lp339
g24
(S'\x07\xdf\x0b\x11'
p340
tp341
Rp342
ag154
asg35
(lp343
g24
(S'\x07\xdf\x05\r'
p344
tp345
Rp346
asg40
(lp347
g24
(S'\x07\xdf\n\x14'
p348
tp349
Rp350
ag316
asg42
(lp351
(g24
(S'\x07\xdf\t\x01'
p352
tp353
Rp354
g24
(S'\x07\xdf\t\x14'
p355
tp356
Rp357
tp358
asg48
S'postdoc'
p359
sbsg50
(iperson
Person
p360
(dp361
g20
S'chunyingrong@gmail.com'
p362
sg22
(lp363
g24
(S'\x07\xdf\x05\r'
p364
tp365
Rp366
asg31
S'Chunying Rong'
p367
sg33
(lp368
sg35
(lp369
g24
(S'\x07\xdf\x02\x12'
p370
tp371
Rp372
asg40
(lp373
sg42
(lp374
(g24
(S'\x07\xdf\t\x1c'
p375
tp376
Rp377
tp378
asg48
S'phd'
p379
sbsg73
S'Developing Density Functional Reactivity Theory with Information Theory'
p380
sg75
g366
sbag0
(g13
g2
Ntp381
Rp382
(dp383
g17
(iperson
Person
p384
(dp385
g20
S'katharina.boguslawski@gmail.com'
p386
sg22
(lp387
g24
(S'\x07\xdf\x02\x19'
p388
tp389
Rp390
asg31
S'Kasia Boguslawski'
p391
sg33
(lp392
sg35
(lp393
g24
(S'\x07\xdf\x03\x0b'
p394
tp395
Rp396
asg40
(lp397
sg42
(lp398
(g24
(S'\x07\xdf\x08\x01'
p399
tp400
Rp401
tp402
asg48
S'postdoc'
p403
sbsg50
(iperson
Person
p404
(dp405
g20
S'hongsw2@gmail.com'
p406
sg22
(lp407
g24
(S'\x07\xdf\x03\x0b'
p408
tp409
Rp410
ag24
(S'\x07\xdf\x08\x1a'
p411
tp412
Rp413
asg31
S'Sung Hong'
p414
sg33
(lp415
sg35
(lp416
g24
(S'\x07\xdf\x05\x14'
p417
tp418
Rp419
asg40
(lp420
sg42
(lp421
(g24
(S'\x07\xdf\t\x01'
p422
tp423
Rp424
tp425
asg48
S'undergrad'
p426
sbsg73
S'Elucidating cation-cation interaction between uranyl cations'
p427
sg75
g410
sbag0
(g13
g2
Ntp428
Rp429
(dp430
g17
Nsg50
g404
sg73
S'Troubleshooting SCF and Geometry convergence in supramolecular uranyl and neptunyl systems'
p431
sg75
g413
sbag0
(g13
g2
Ntp432
Rp433
(dp434
g17
g120
sg50
g229
sg73
S'Chemical reactivity at finite temperature'
p435
sg75
g235
sbag0
(g13
g2
Ntp436
Rp437
(dp438
g17
g404
sg50
(iperson
Person
p439
(dp440
g20
S'bigpauljohnson@gmail.com'
p441
sg22
(lp442
g24
(S'\x07\xdf\x05\x14'
p443
tp444
Rp445
asg31
S'Paul Johnson'
p446
sg33
(lp447
sg35
(lp448
sg40
(lp449
sg42
(lp450
(g24
(S'\x07\xdf\x01\x07'
p451
tp452
Rp453
tp454
asg48
S'postdoc'
p455
sbsg73
S'Something Something Geminals'
p456
sg75
g445
sbag0
(g13
g2
Ntp457
Rp458
(dp459
g17
g257
sg50
g384
sg73
S'Not so short introduction to geminals'
p460
sg75
g390
sbag0
(g13
g2
Ntp461
Rp462
(dp463
g17
g302
sg50
g120
sg73
S'Electronic spectra of ThO and ThS'
p464
sg75
g126
sbag0
(g13
g2
Ntp465
Rp466
(dp467
g17
(iperson
Person
p468
(dp469
g20
S''
p470
sg22
(lp471
sg31
S'Caitlin Lanssens'
p472
sg33
(lp473
sg35
(lp474
g24
(S'\x07\xdf\t\x10'
p475
tp476
Rp477
asg40
(lp478
sg42
(lp479
sg48
S'visiting'
p480
sbsg50
g120
sg73
S'Energy extrapolation: finding a systematic way to correct model energies'
p481
sg75
g129
sbag0
(g13
g2
Ntp482
Rp483
(dp484
g17
g257
sg50
g331
sg73
S'Orbital Entanglement in Quantum Chemistry'
p485
sg75
g337
sbag0
(g13
g2
Ntp486
Rp487
(dp488
g17
g360
sg50
g18
sg73
S'Fractional particle number and chemical reactivity'
p489
sg75
g27
sbag0
(g13
g2
Ntp490
Rp491
(dp492
g17
(iperson
Person
p493
(dp494
g20
S'theoahmedkamel@gmail.com'
p495
sg22
(lp496
sg31
S'Ahmed Kamel'
p497
sg33
(lp498
g151
ag324
asg35
(lp499
g24
(S'\x07\xdf\x05\x1b'
p500
tp501
Rp502
asg40
(lp503
g24
(S'\x07\xdf\t\x16'
p504
tp505
Rp506
ag243
asg42
(lp507
sg48
S'phd'
p508
sbsg50
g18
sg73
S'Comparisons and Models'
p509
sg75
g30
sbag0
(g13
g2
Ntp510
Rp511
(dp512
g17
(iperson
Person
p513
(dp514
g20
S'farnazhz@gmail.com'
p515
sg22
(lp516
sg31
S'Farnaz Heidar Zadeh'
p517
sg33
(lp518
sg35
(lp519
g24
(S'\x07\xdf\x05\x06'
p520
tp521
Rp522
asg40
(lp523
g24
(S'\x07\xdf\x05\x14'
p524
tp525
Rp526
asg42
(lp527
(g24
(S'\x07\xdf\x08\x1d'
p528
tp529
Rp530
tp531
asg48
S'phd'
p532
sbsg50
g286
sg73
S'Cholesky Decomposition and Density Fitting in HORTON'
p533
sg75
g292
sbag0
(g13
g2
Ntp534
Rp535
(dp536
g17
g168
sg50
(iperson
Person
p537
(dp538
g20
g470
sg22
(lp539
g183
asg31
S'James Anderson'
p540
sg33
(lp541
sg35
(lp542
sg40
(lp543
sg42
(lp544
sg48
S'visiting'
p545
sbsg73
S'Relativistic Quantum Theory of Atoms in Molecules'
p546
sg75
g183
sbag0
(g13
g2
Ntp547
Rp548
(dp549
g17
Nsg50
(iperson
Person
p550
(dp551
g20
g470
sg22
(lp552
g24
(S'\x07\xdf\x08\x1a'
p553
tp554
Rp555
asg31
S'Jonathan Snow'
p556
sg33
(lp557
sg35
g542
sg40
(lp558
sg42
g544
sg48
S'undergrad'
p559
sbsg73
S'Procrustes Analysis'
p560
sg75
g555
sbag0
(g13
g2
Ntp561
Rp562
(dp563
g17
Nsg50
(iperson
Person
p564
(dp565
g20
g470
sg22
(lp566
g24
(S'\x07\xdf\x08\x1a'
p567
tp568
Rp569
asg31
S'Ali Snow'
p570
sg33
(lp571
sg35
g542
sg40
(lp572
sg42
g544
sg48
g559
sbsg73
S'The Fitting Project'
p573
sg75
g569
sbag0
(g13
g2
Ntp574
Rp575
(dp576
g17
(iperson
Person
p577
(dp578
g20
g470
sg22
(lp579
sg31
S'Michael Richer'
p580
sg33
(lp581
g24
(S'\x07\xdf\t\x16'
p582
tp583
Rp584
ag254
asg35
(lp585
g506
asg40
(lp586
g342
ag24
(S'\x07\xe0\x01\x13'
p587
tp588
Rp589
asg42
(lp590
sg48
S'masters'
p591
sbsg50
g493
sg73
S'Polarizability Fitting and Calculation'
p592
sg75
g506
sbasbsS'_presenters'
p593
(lp594
g51
a(iperson
Person
p595
(dp596
g20
g470
sg22
(lp597
sg31
S'Kumru Dikmenli'
p598
sg33
(lp599
g350
ag589
asg35
(lp600
sg40
(lp601
g134
ag140
asg42
(lp602
sg48
S'masters'
p603
sbag99
ag79
a(iperson
Person
p604
(dp605
g20
S'dumontns@mcmaster.ca'
p606
sg22
(lp607
g24
(S'\x07\xdf\x08\x1b'
p608
tp609
Rp610
asg31
S'Nicole Dumont'
p611
sg33
(lp612
sg35
(lp613
sg40
(lp614
sg42
(lp615
sg48
S'undergrad'
p616
sbag577
ag168
ag205
ag513
ag257
ag302
ag360
ag493
ag468
a(iperson
Person
p617
(dp618
g20
S'anandpatel98@gmail.com'
p619
sg22
(lp620
sg31
S'Anand Patel'
p621
sg33
(lp622
sg35
(lp623
sg40
(lp624
g24
(S'\x07\xdf\n\x06'
p625
tp626
Rp627
asg42
(lp628
sg48
S'undergrad'
p629
sbag404
ag229
ag439
ag384
ag120
ag331
ag18
ag286
ag537
ag550
ag564
asS'_future_presentations'
p630
g0
(g7
g2
Ntp631
Rp632
(dp633
g11
(lp634
g0
(g13
g2
Ntp635
Rp636
(dp637
g17
g120
sg50
g595
sg73
g470
sg75
g134
sbag0
(g13
g2
Ntp638
Rp639
(dp640
g17
g595
sg50
g331
sg73
g470
sg75
g350
sbag0
(g13
g2
Ntp641
Rp642
(dp643
g17
g168
sg50
g617
sg73
g470
sg75
g627
sbag0
(g13
g2
Ntp644
Rp645
(dp646
g17
Nsg50
g604
sg73
g470
sg75
g24
(S'\x07\xdf\n\x06'
p647
tp648
Rp649
sbag0
(g13
g2
Ntp650
Rp651
(dp652
g17
g51
sg50
g286
sg73
g470
sg75
g62
sbag0
(g13
g2
Ntp653
Rp654
(dp655
g17
g229
sg50
g302
sg73
g470
sg75
g240
sbag0
(g13
g2
Ntp656
Rp657
(dp658
g17
g286
sg50
g257
sg73
g470
sg75
g276
sbag0
(g13
g2
Ntp659
Rp660
(dp661
g17
g331
sg50
g577
sg73
g470
sg75
g342
sbag0
(g13
g2
Ntp662
Rp663
(dp664
g17
g493
sg50
g120
sg73
g470
sg75
g151
sbag0
(g13
g2
Ntp665
Rp666
(dp667
g17
g257
sg50
g51
sg73
g470
sg75
g70
sbag0
(g13
g2
Ntp668
Rp669
(dp670
g17
g577
sg50
g229
sg73
g470
sg75
g254
sbag0
(g13
g2
Ntp671
Rp672
(dp673
g17
g302
sg50
g331
sg73
g470
sg75
g316
sbag0
(g13
g2
Ntp674
Rp675
(dp676
g17
g229
sg50
g493
sg73
g470
sg75
g243
sbag0
(g13
g2
Ntp677
Rp678
(dp679
g17
g120
sg50
g595
sg73
g470
sg75
g140
sbag0
(g13
g2
Ntp680
Rp681
(dp682
g17
g51
sg50
g286
sg73
g470
sg75
g65
sbag0
(g13
g2
Ntp683
Rp684
(dp685
g17
g331
sg50
g120
sg73
g470
sg75
g154
sbag0
(g13
g2
Ntp686
Rp687
(dp688
g17
g595
sg50
g577
sg73
g470
sg75
g589
sbag0
(g13
g2
Ntp689
Rp690
(dp691
g17
g493
sg50
g302
sg73
g470
sg75
g324
sbag0
(g13
g2
Ntp692
Rp693
(dp694
g17
g120
sg50
g257
sg73
g470
sg75
g137
sbag0
(g13
g2
Ntp695
Rp696
(dp697
g17
g286
sg50
g257
sg73
g470
sg75
g279
sbasbsb.