ccopy_reg
_reconstructor
p0
(cgroup_meeting
GroupMeetings
p1
c__builtin__
object
p2
Ntp3
Rp4
(dp5
S'_past_presentations'
p6
g0
(cpresentation
PresentationStorage
p7
g2
Ntp8
Rp9
(dp10
S'_presentations'
p11
(lp12
g0
(cpresentation
Presentation
p13
g2
Ntp14
Rp15
(dp16
S'_chair'
p17
(iperson
Person
p18
(dp19
S'_email'
p20
S'ramirandaq@gmail.com'
p21
sS'_dates_presented'
p22
(lp23
cdatetime
date
p24
(S'\x07\xdf\x02\x12'
p25
tp26
Rp27
ag24
(S'\x07\xdf\x05\x1b'
p28
tp29
Rp30
asS'_name'
p31
S'Ramon Miranda'
p32
sS'_dates_to_chair'
p33
(lp34
sS'_dates_chaired'
p35
(lp36
g24
(S'\x07\xdf\x04\x0f'
p37
tp38
Rp39
asS'_dates_to_present'
p40
(lp41
sS'_dates_away'
p42
(lp43
(g24
(S'\x07\xdf\x06\x0f'
p44
tp45
Rp46
tp47
asS'_position'
p48
S'phd'
p49
sbsS'_presenter'
p50
(iperson
Person
p51
(dp52
g20
S'yxt1991@gmail.com'
p53
sg22
(lp54
g24
(S'\x07\xdf\x04\x0f'
p55
tp56
Rp57
asg31
S'Derrick Yang'
p58
sg33
(lp59
g24
(S'\x07\xdf\x0b\x03'
p60
tp61
Rp62
ag24
(S'\x07\xe0\x01\x1a'
p63
tp64
Rp65
asg35
(lp66
sg40
(lp67
g24
(S'\x07\xdf\x0b\x18'
p68
tp69
Rp70
asg42
(lp71
sg48
S'masters'
p72
sbsS'_title'
p73
S'Flat plane condition and spin reactivity indicator for atoms and ions'
p74
sS'_date'
p75
g57
sbag0
(g13
g2
Ntp76
Rp77
(dp78
g17
(iperson
Person
p79
(dp80
g20
S'cestdiego@gmail.com'
p81
sg22
(lp82
g24
(S'\x07\xdf\x04\x01'
p83
tp84
Rp85
asg31
S'Diego Berrocal'
p86
sg33
(lp87
sg35
(lp88
g24
(S'\x07\xdf\x02\x0b'
p89
tp90
Rp91
asg40
(lp92
sg42
(lp93
(g24
(S'\x07\xdf\x04\x13'
p94
tp95
Rp96
tp97
asg48
S'undergrad'
p98
sbsg50
(iperson
Person
p99
(dp100
g20
S'stijn.fias@gmail.com'
p101
sg22
(lp102
g24
(S'\x07\xdf\x02\x0b'
p103
tp104
Rp105
asg31
S'Stijn Fias'
p106
sg33
(lp107
sg35
(lp108
sg40
(lp109
sg42
(lp110
(g24
(S'\x07\xdf\x05\x04'
p111
tp112
Rp113
tp114
asg48
S'postdoc'
p115
sbsg73
S'Linear reasponse function and its applications in chemistry and physics'
p116
sg75
g105
sbag0
(g13
g2
Ntp117
Rp118
(dp119
g17
(iperson
Person
p120
(dp121
g20
S'crisbeth46@gmail.com'
p122
sg22
(lp123
g24
(S'\x07\xdf\x04\x08'
p124
tp125
Rp126
ag24
(S'\x07\xdf\t\x10'
p127
tp128
Rp129
asg31
S'Cristina Gonzalez'
p130
sg33
(lp131
g24
(S'\x07\xdf\n\r'
p132
tp133
Rp134
ag24
(S'\x07\xdf\x0c\x16'
p135
tp136
Rp137
asg35
(lp138
g24
(S'\x07\xdf\x02\x04'
p139
tp140
Rp141
ag24
(S'\x07\xdf\x04\x01'
p142
tp143
Rp144
asg40
(lp145
g24
(S'\x07\xdf\x0b\x11'
p146
tp147
Rp148
ag65
asg42
(lp149
(g24
(S'\x07\xdf\n\n'
p150
tp151
Rp152
g24
(S'\x07\xdf\n\x12'
p153
tp154
Rp155
tp156
asg48
S'phd'
p157
sbsg50
g79
sg73
S'Python workshop'
p158
sg75
g85
sbag0
(g13
g2
Ntp159
Rp160
(dp161
g17
Nsg50
(iperson
Person
p162
(dp163
g20
S'theoretical.chemistry@gmail.com'
p164
sg22
(lp165
g24
(S'\x07\xdf\t\t'
p166
tp167
Rp168
asg31
S'Paul Ayers'
p169
sg33
(lp170
g24
(S'\x07\xdf\n\x06'
p171
tp172
Rp173
asg35
(lp174
g24
(S'\x07\xdf\x08\x14'
p175
tp176
Rp177
asg40
(lp178
sg42
(lp179
(g24
(S'\x07\xdf\t\n'
p180
tp181
Rp182
g24
(S'\x07\xdf\t\x14'
p183
tp184
Rp185
tp186
a(g24
(S'\x07\xdf\t\x17'
p187
tp188
Rp189
g24
(S'\x07\xdf\n\x07'
p190
tp191
Rp192
tp193
ag193
ag193
ag193
ag193
ag193
ag193
ag193
asg48
S'professor'
p194
sbsg73
S'Outline of the Projects in Ayers Group'
p195
sg75
g168
sbag0
(g13
g2
Ntp196
Rp197
(dp198
g17
Nsg50
(iperson
Person
p199
(dp200
g20
S'duperrc@mcmaster.ca'
p201
sg22
(lp202
g24
(S'\x07\xdf\x08\x1a'
p203
tp204
Rp205
ag24
(S'\x07\xdf\x08\x19'
p206
tp207
Rp208
asg31
S'Corinne Duperrouzel'
p209
sg33
(lp210
sg35
(lp211
sg40
(lp212
sg42
(lp213
(g24
(S'\x07\xdf\t\x01'
p214
tp215
Rp216
tp217
asg48
S'undergrad'
p218
sbsg73
S'Multi-Reference Nature of Plutonium Oxides'
p219
sg75
g205
sbag0
(g13
g2
Ntp220
Rp221
(dp222
g17
(iperson
Person
p223
(dp224
g20
S'qimfranco@gmail.com'
p225
sg22
(lp226
g24
(S'\x07\xdf\x02\x04'
p227
tp228
Rp229
asg31
S'Marco Franco'
p230
sg33
(lp231
g24
(S'\x07\xdf\n\x14'
p232
tp233
Rp234
ag24
(S'\x07\xdf\x0c\x0f'
p235
tp236
Rp237
asg35
(lp238
g24
(S'\x07\xdf\x03\x04'
p239
tp240
Rp241
asg40
(lp242
g24
(S'\x07\xdf\n\r'
p243
tp244
Rp245
ag24
(S'\x07\xdf\x0c\x08'
p246
tp247
Rp248
ag24
(S'\x07\xe0\x01\x05'
p249
tp250
Rp251
asg42
(lp252
sg48
S'postdoc'
p253
sbsg50
(iperson
Person
p254
(dp255
g20
S'zhao229@mcmaster.ca'
p256
sg22
(lp257
g24
(S'\x07\xdf\x03\x04'
p258
tp259
Rp260
asg31
S'Yilin Zhao'
p261
sg33
(lp262
g148
ag24
(S'\x07\xe0\x01\x13'
p263
tp264
Rp265
asg35
(lp266
g24
(S'\x07\xdf\x02\x19'
p267
tp268
Rp269
ag24
(S'\x07\xdf\x04\x16'
p270
tp271
Rp272
asg40
(lp273
g24
(S'\x07\xdf\n\x14'
p274
tp275
Rp276
ag237
asg42
(lp277
sg48
S'masters'
p278
sbsg73
S'Dissecting bond formation of Palladium-ethene complexes'
p279
sg75
g260
sbag0
(g13
g2
Ntp280
Rp281
(dp282
g17
(iperson
Person
p283
(dp284
g20
S'talcite@gmail.com'
p285
sg22
(lp286
g24
(S'\x07\xdf\x05\x06'
p287
tp288
Rp289
asg31
S'Matt Chan'
p290
sg33
(lp291
g24
(S'\x07\xdf\x0b\n'
p292
tp293
Rp294
ag24
(S'\x07\xdf\x0c\x1d'
p295
tp296
Rp297
asg35
(lp298
g24
(S'\x07\xdf\x04\x1d'
p299
tp300
Rp301
asg40
(lp302
g24
(S'\x07\xdf\x0c\x01'
p303
tp304
Rp305
asg42
(lp306
sg48
S'phd'
p307
sbsg50
(iperson
Person
p308
(dp309
g20
S'david.kim.91@gmail.com'
p310
sg22
(lp311
g24
(S'\x07\xdf\x04\x1d'
p312
tp313
Rp314
asg31
S'David Kim'
p315
sg33
(lp316
g24
(S'\x07\xdf\n\r'
p317
tp318
Rp319
ag24
(S'\x07\xe0\x01\x0c'
p320
tp321
Rp322
asg35
(lp323
g24
(S'\x07\xdf\x04\x08'
p324
tp325
Rp326
asg40
(lp327
g24
(S'\x07\xdf\n\x1b'
p328
tp329
Rp330
ag297
asg42
(lp331
sg48
S'masters'
p332
sbsg73
S'Beating a Horse to Death: Quasiatomic Orbitals'
p333
sg75
g314
sbag0
(g13
g2
Ntp334
Rp335
(dp336
g17
(iperson
Person
p337
(dp338
g20
S'ptecmer@gmail.com'
p339
sg22
(lp340
g24
(S'\x07\xdf\x04\x16'
p341
tp342
Rp343
asg31
S'Pawel Tecmer'
p344
sg33
(lp345
g248
asg35
(lp346
g24
(S'\x07\xdf\x05\r'
p347
tp348
Rp349
asg40
(lp350
g62
asg42
(lp351
(g24
(S'\x07\xdf\t\x01'
p352
tp353
Rp354
g24
(S'\x07\xdf\t\x14'
p355
tp356
Rp357
tp358
asg48
S'postdoc'
p359
sbsg50
(iperson
Person
p360
(dp361
g20
S'chunyingrong@gmail.com'
p362
sg22
(lp363
g24
(S'\x07\xdf\x05\r'
p364
tp365
Rp366
asg31
S'Chunying Rong'
p367
sg33
(lp368
sg35
(lp369
g24
(S'\x07\xdf\x02\x12'
p370
tp371
Rp372
asg40
(lp373
sg42
(lp374
(g24
(S'\x07\xdf\t\x1c'
p375
tp376
Rp377
tp378
asg48
S'phd'
p379
sbsg73
S'Developing Density Functional Reactivity Theory with Information Theory'
p380
sg75
g366
sbag0
(g13
g2
Ntp381
Rp382
(dp383
g17
(iperson
Person
p384
(dp385
g20
S'katharina.boguslawski@gmail.com'
p386
sg22
(lp387
g24
(S'\x07\xdf\x02\x19'
p388
tp389
Rp390
asg31
S'Kasia Boguslawski'
p391
sg33
(lp392
sg35
(lp393
g24
(S'\x07\xdf\x03\x0b'
p394
tp395
Rp396
asg40
(lp397
sg42
(lp398
(g24
(S'\x07\xdf\x08\x01'
p399
tp400
Rp401
tp402
asg48
S'postdoc'
p403
sbsg50
(iperson
Person
p404
(dp405
g20
S'hongsw2@gmail.com'
p406
sg22
(lp407
g24
(S'\x07\xdf\x03\x0b'
p408
tp409
Rp410
ag24
(S'\x07\xdf\x08\x1a'
p411
tp412
Rp413
asg31
S'Sung Hong'
p414
sg33
(lp415
sg35
(lp416
g24
(S'\x07\xdf\x05\x14'
p417
tp418
Rp419
asg40
(lp420
sg42
(lp421
(g24
(S'\x07\xdf\t\x01'
p422
tp423
Rp424
tp425
asg48
S'undergrad'
p426
sbsg73
S'Elucidating cation-cation interaction between uranyl cations'
p427
sg75
g410
sbag0
(g13
g2
Ntp428
Rp429
(dp430
g17
Nsg50
g404
sg73
S'Troubleshooting SCF and Geometry convergence in supramolecular uranyl and neptunyl systems'
p431
sg75
g413
sbag0
(g13
g2
Ntp432
Rp433
(dp434
g17
g120
sg50
g223
sg73
S'Chemical reactivity at finite temperature'
p435
sg75
g229
sbag0
(g13
g2
Ntp436
Rp437
(dp438
g17
g404
sg50
(iperson
Person
p439
(dp440
g20
S'bigpauljohnson@gmail.com'
p441
sg22
(lp442
g24
(S'\x07\xdf\x05\x14'
p443
tp444
Rp445
asg31
S'Paul Johnson'
p446
sg33
(lp447
sg35
(lp448
sg40
(lp449
sg42
(lp450
(g24
(S'\x07\xdf\x01\x07'
p451
tp452
Rp453
tp454
asg48
S'postdoc'
p455
sbsg73
S'Something Something Geminals'
p456
sg75
g445
sbag0
(g13
g2
Ntp457
Rp458
(dp459
g17
g254
sg50
g384
sg73
S'Not so short introduction to geminals'
p460
sg75
g390
sbag0
(g13
g2
Ntp461
Rp462
(dp463
g17
g308
sg50
g120
sg73
S'Electronic spectra of ThO and ThS'
p464
sg75
g126
sbag0
(g13
g2
Ntp465
Rp466
(dp467
g17
(iperson
Person
p468
(dp469
g20
S''
p470
sg22
(lp471
sg31
S'Caitlin Lanssens'
p472
sg33
(lp473
sg35
(lp474
g24
(S'\x07\xdf\t\x10'
p475
tp476
Rp477
asg40
(lp478
sg42
(lp479
sg48
S'visiting'
p480
sbsg50
g120
sg73
S'Energy extrapolation: finding a systematic way to correct model energies'
p481
sg75
g129
sbag0
(g13
g2
Ntp482
Rp483
(dp484
g17
g254
sg50
g337
sg73
S'Orbital Entanglement in Quantum Chemistry'
p485
sg75
g343
sbag0
(g13
g2
Ntp486
Rp487
(dp488
g17
g360
sg50
g18
sg73
S'Fractional particle number and chemical reactivity'
p489
sg75
g27
sbag0
(g13
g2
Ntp490
Rp491
(dp492
g17
(iperson
Person
p493
(dp494
g20
S'theoahmedkamel@gmail.com'
p495
sg22
(lp496
sg31
S'Ahmed Kamel'
p497
sg33
(lp498
g330
ag251
asg35
(lp499
g24
(S'\x07\xdf\x05\x1b'
p500
tp501
Rp502
asg40
(lp503
g24
(S'\x07\xdf\t\x16'
p504
tp505
Rp506
ag265
asg42
(lp507
sg48
S'phd'
p508
sbsg50
g18
sg73
S'Comparisons and Models'
p509
sg75
g30
sbag0
(g13
g2
Ntp510
Rp511
(dp512
g17
(iperson
Person
p513
(dp514
g20
S'farnazhz@gmail.com'
p515
sg22
(lp516
sg31
S'Farnaz Heidar Zadeh'
p517
sg33
(lp518
sg35
(lp519
g24
(S'\x07\xdf\x05\x06'
p520
tp521
Rp522
asg40
(lp523
g24
(S'\x07\xdf\x05\x14'
p524
tp525
Rp526
asg42
(lp527
(g24
(S'\x07\xdf\x08\x1d'
p528
tp529
Rp530
tp531
asg48
S'phd'
p532
sbsg50
g283
sg73
S'Cholesky Decomposition and Density Fitting in HORTON'
p533
sg75
g289
sbag0
(g13
g2
Ntp534
Rp535
(dp536
g17
g162
sg50
(iperson
Person
p537
(dp538
g33
(lp539
sg22
(lp540
g177
asg31
S'James Anderson'
p541
sg20
g470
sg35
(lp542
sg40
(lp543
sg42
(lp544
sg48
S'visiting'
p545
sbsg73
S'Relativistic Quantum Theory of Atoms in Molecules'
p546
sg75
g177
sbag0
(g13
g2
Ntp547
Rp548
(dp549
g17
Nsg50
(iperson
Person
p550
(dp551
g33
(lp552
sg22
(lp553
g24
(S'\x07\xdf\x08\x1a'
p554
tp555
Rp556
asg31
S'Jonathan Snow'
p557
sg20
g470
sg35
g542
sg40
(lp558
sg42
g544
sg48
S'undergrad'
p559
sbsg73
S'Procrustes Analysis'
p560
sg75
g556
sbag0
(g13
g2
Ntp561
Rp562
(dp563
g17
Nsg50
(iperson
Person
p564
(dp565
g33
(lp566
sg22
(lp567
g24
(S'\x07\xdf\x08\x1a'
p568
tp569
Rp570
asg31
S'Ali Snow'
p571
sg20
g470
sg35
g542
sg40
(lp572
sg42
g544
sg48
g559
sbsg73
S'The Fitting Project'
p573
sg75
g570
sbag0
(g13
g2
Ntp574
Rp575
(dp576
g17
(iperson
Person
p577
(dp578
g20
g470
sg22
(lp579
sg31
S'Michael Richer'
p580
sg33
(lp581
g24
(S'\x07\xdf\t\x16'
p582
tp583
Rp584
ag70
asg35
(lp585
g506
asg40
(lp586
g294
ag322
asg42
(lp587
sg48
S'masters'
p588
sbsg50
g493
sg73
S'Polarizability Fitting and Calculation'
p589
sg75
g506
sbasbsS'_presenters'
p590
(lp591
g51
a(iperson
Person
p592
(dp593
g20
g470
sg22
(lp594
sg31
S'Kumru Dikmenli'
p595
sg33
(lp596
g305
asg35
(lp597
sg40
(lp598
g134
ag137
asg42
(lp599
sg48
S'masters'
p600
sbag99
ag79
a(iperson
Person
p601
(dp602
g20
S'dumontns@mcmaster.ca'
p603
sg22
(lp604
g24
(S'\x07\xdf\x08\x1b'
p605
tp606
Rp607
asg31
S'Nicole Dumont'
p608
sg33
(lp609
sg35
(lp610
sg40
(lp611
sg42
(lp612
sg48
S'undergrad'
p613
sbag577
ag162
ag199
ag513
ag254
ag308
ag360
ag493
ag468
a(iperson
Person
p614
(dp615
g20
S'anandpatel98@gmail.com'
p616
sg22
(lp617
sg31
S'Anand Patel'
p618
sg33
(lp619
sg35
(lp620
sg40
(lp621
g24
(S'\x07\xdf\n\x06'
p622
tp623
Rp624
asg42
(lp625
sg48
S'undergrad'
p626
sbag404
ag223
ag439
ag384
ag120
ag337
ag18
ag283
ag537
ag550
ag564
asS'_future_presentations'
p627
g0
(g7
g2
Ntp628
Rp629
(dp630
g11
(lp631
g0
(g13
g2
Ntp632
Rp633
(dp634
g17
g120
sg50
g592
sg73
g470
sg75
g134
sbag0
(g13
g2
Ntp635
Rp636
(dp637
g17
g223
sg50
g254
sg73
g470
sg75
g276
sbag0
(g13
g2
Ntp638
Rp639
(dp640
g17
g162
sg50
g614
sg73
g470
sg75
g624
sbag0
(g13
g2
Ntp641
Rp642
(dp643
g17
Nsg50
g601
sg73
g470
sg75
g24
(S'\x07\xdf\n\x06'
p644
tp645
Rp646
sbag0
(g13
g2
Ntp647
Rp648
(dp649
g17
g493
sg50
g308
sg73
g470
sg75
g330
sbag0
(g13
g2
Ntp650
Rp651
(dp652
g17
g51
sg50
g337
sg73
g470
sg75
g62
sbag0
(g13
g2
Ntp653
Rp654
(dp655
g17
g283
sg50
g577
sg73
g470
sg75
g294
sbag0
(g13
g2
Ntp656
Rp657
(dp658
g17
g254
sg50
g120
sg73
g470
sg75
g148
sbag0
(g13
g2
Ntp659
Rp660
(dp661
g17
g577
sg50
g51
sg73
g470
sg75
g70
sbag0
(g13
g2
Ntp662
Rp663
(dp664
g17
g592
sg50
g283
sg73
g470
sg75
g305
sbag0
(g13
g2
Ntp665
Rp666
(dp667
g17
g337
sg50
g223
sg73
g470
sg75
g248
sbag0
(g13
g2
Ntp668
Rp669
(dp670
g17
g223
sg50
g254
sg73
g470
sg75
g237
sbag0
(g13
g2
Ntp671
Rp672
(dp673
g17
g120
sg50
g592
sg73
g470
sg75
g137
sbag0
(g13
g2
Ntp674
Rp675
(dp676
g17
g283
sg50
g308
sg73
g470
sg75
g297
sbag0
(g13
g2
Ntp677
Rp678
(dp679
g17
g493
sg50
g223
sg73
g470
sg75
g251
sbag0
(g13
g2
Ntp680
Rp681
(dp682
g17
g308
sg50
g577
sg73
g470
sg75
g322
sbag0
(g13
g2
Ntp683
Rp684
(dp685
g17
g254
sg50
g493
sg73
g470
sg75
g265
sbag0
(g13
g2
Ntp686
Rp687
(dp688
g17
g51
sg50
g120
sg73
g470
sg75
g65
sbasbsb.