(igroup_meeting
GroupMeetings
p0
(dp1
S'_past_presentations'
p2
(dp3
cdatetime
date
p4
(S'\x07\xdf\x08\x1a'
p5
tp6
Rp7
(dp8
S'presenter'
p9
S'Corinne Duperrouzel'
p10
sS'chair'
p11
S''
p12
sS'file'
p13
g12
sS'title'
p14
g12
ssg4
(S'\x07\xdf\x03\x0b'
p15
tp16
Rp17
(dp18
S'presenter'
p19
S'Sung Hong'
p20
sS'chair'
p21
S'Kasia Boguslawski'
p22
sS'file'
p23
g12
sS'title'
p24
S'Elucidating cation-cation interaction between uranyl cations'
p25
ssg4
(S'\x07\xdf\x02\x0b'
p26
tp27
Rp28
(dp29
g19
S'Stijn Fias'
p30
sg21
S'Diego Berrocal'
p31
sg23
g12
sg24
S'Linear reasponse function and its applications in chemistry and physics'
p32
ssg4
(S'\x07\xdf\x05\x14'
p33
tp34
Rp35
(dp36
S'presenter'
p37
S'Paul Johnson'
p38
sS'chair'
p39
g20
sS'file'
p40
g12
sS'title'
p41
S'Something Something Geminals'
p42
ssg4
(S'\x07\xdf\x04\x16'
p43
tp44
Rp45
(dp46
g19
S'Pawel Tecmer'
p47
sg21
S'Yilin Zhao'
p48
sg23
g12
sg24
S'Orbital Entanglement in Quantum Chemistry'
p49
ssg4
(S'\x07\xdf\x03\x04'
p50
tp51
Rp52
(dp53
g19
g48
sg21
S'Marco Franco'
p54
sg23
g12
sg24
S'Dissecting bond formation of Palladium-ethene complexes'
p55
ssg4
(S'\x07\xdf\x04\x08'
p56
tp57
Rp58
(dp59
g19
S'Cristina Gonzalez'
p60
sg21
S'David Kim'
p61
sg23
g12
sg24
S'Electronic spectra of ThO and ThS'
p62
ssg4
(S'\x07\xdf\x08\x1b'
p63
tp64
Rp65
(dp66
g9
S'Nicole Dumont'
p67
sg11
g12
sg13
g12
sg14
g12
ssg4
(S'\x07\xdf\t\t'
p68
tp69
Rp70
(dp71
g9
S'Paul Ayers'
p72
sg11
g12
sg13
g12
sg14
S'Outline of the Projects in Ayers Group'
p73
ssg4
(S'\x07\xdf\x02\x19'
p74
tp75
Rp76
(dp77
g19
g22
sg21
g48
sg23
g12
sg24
S'Not so short introduction to geminals'
p78
ssg4
(S'\x07\xdf\x04\x1d'
p79
tp80
Rp81
(dp82
g19
g61
sg21
S'Matt Chan'
p83
sg23
g12
sg24
S'Beating a Horse to Death: Quasiatomic Orbitals'
p84
ssg4
(S'\x07\xdf\x04\x0f'
p85
tp86
Rp87
(dp88
g19
S'Derrick Yang'
p89
sg21
S'Ramon Miranda'
p90
sg23
g12
sg24
S'Flat plane condition and spin reactivity indicator for atoms and ions'
p91
ssg4
(S'\x07\xdf\x04\x01'
p92
tp93
Rp94
(dp95
g19
g31
sg21
g60
sg23
g12
sg24
S'Python workshop'
p96
ssg4
(S'\x07\xdf\x02\x12'
p97
tp98
Rp99
(dp100
g19
g90
sg21
S'Chunying Rong'
p101
sg23
g12
sg24
S'Fractional particle number and chemical reactivity'
p102
ssg4
(S'\x07\xdf\x05\r'
p103
tp104
Rp105
(dp106
g37
g101
sg39
g47
sg40
g12
sg41
S'Developing Density Functional Reactivity Theory with Information Theory'
p107
ssg4
(S'\x07\xdf\x05\x06'
p108
tp109
Rp110
(dp111
g37
g83
sg39
S'Farnaz Heidar Zadeh'
p112
sg40
g12
sg41
S'Cholesky Decomposition and Density Fitting in HORTON'
p113
ssg4
(S'\x07\xdf\x05\x1b'
p114
tp115
Rp116
(dp117
g9
g90
sg11
S'Ahmed Kamel'
p118
sg13
g12
sg14
S'Comparisons and Models'
p119
ssg4
(S'\x07\xdf\x02\x04'
p120
tp121
Rp122
(dp123
g19
g54
sg21
g60
sg23
g12
sg24
S'Chemical reactivity at finite temperatures'
p124
sssS'_presenters'
p125
(lp126
(iperson
Person
p127
(dp128
S'_email'
p129
S'theoretical.chemistry@gmail.com'
p130
sS'_dates_presented'
p131
(lp132
g70
asS'_name'
p133
S'Paul Ayers'
p134
sS'_dates_to_chair'
p135
(lp136
g4
(S'\x07\xdf\t\x1e'
p137
tp138
Rp139
asS'_dates_chaired'
p140
(lp141
sS'_dates_to_present'
p142
(lp143
sS'_dates_away'
p144
(lp145
(g4
(S'\x07\xdf\t\n'
p146
tp147
Rp148
g4
(S'\x07\xdf\t\x14'
p149
tp150
Rp151
tp152
asS'_position'
p153
S'professor'
p154
sba(iperson
Person
p155
(dp156
g129
S'katharina.boguslawski@gmail.com'
p157
sg131
(lp158
g76
asg133
g22
sg135
(lp159
sg140
(lp160
g4
(S'\x07\xdf\x03\x0b'
p161
tp162
Rp163
asg142
(lp164
sg144
(lp165
(g4
(S'\x07\xdf\x08\x01'
p166
tp167
Rp168
tp169
asg153
S'postdoc'
p170
sba(iperson
Person
p171
(dp172
g129
S'ptecmer@gmail.com'
p173
sg131
(lp174
g45
asg133
g47
sg135
(lp175
sg140
(lp176
g105
asg142
(lp177
sg144
(lp178
(g4
(S'\x07\xdf\t\x01'
p179
tp180
Rp181
tp182
asg153
g170
sba(iperson
Person
p183
(dp184
g129
S'theoahmedkamel@gmail.com'
p185
sg131
(lp186
sg133
g118
sg135
(lp187
sg140
(lp188
g116
asg142
(lp189
g4
(S'\x07\xdf\t\x17'
p190
tp191
Rp192
asg144
(lp193
sg153
S'phd'
p194
sba(iperson
Person
p195
(dp196
g129
S'farnazhz@gmail.com'
p197
sg131
(lp198
sg133
g112
sg135
(lp199
sg140
(lp200
g110
asg142
(lp201
g35
asg144
(lp202
(g4
(S'\x07\xdf\x08\x1d'
p203
tp204
Rp205
tp206
asg153
g194
sba(iperson
Person
p207
(dp208
g129
S'talcite@gmail.com'
p209
sg131
(lp210
g110
asg133
g83
sg135
(lp211
sg140
(lp212
g81
asg142
(lp213
sg144
(lp214
sg153
g194
sba(iperson
Person
p215
(dp216
g129
S'crisbeth46@gmail.com'
p217
sg131
(lp218
g58
asg133
g60
sg135
(lp219
sg140
(lp220
g4
(S'\x07\xdf\x02\x04'
p221
tp222
Rp223
ag4
(S'\x07\xdf\x04\x01'
p224
tp225
Rp226
asg142
(lp227
g4
(S'\x07\xdf\t\x10'
p228
tp229
Rp230
asg144
(lp231
sg153
g194
sba(iperson
Person
p232
(dp233
g129
S'david.kim.91@gmail.com'
p234
sg131
(lp235
g81
asg133
g61
sg135
(lp236
sg140
(lp237
g4
(S'\x07\xdf\x04\x08'
p238
tp239
Rp240
asg142
(lp241
sg144
(lp242
sg153
S'masters'
p243
sba(iperson
Person
p244
(dp245
g129
S'yxt1991@gmail.com'
p246
sg131
(lp247
g87
asg133
g89
sg135
(lp248
sg140
(lp249
g4
(S'\x07\xdf\x04\x16'
p250
tp251
Rp252
asg142
(lp253
sg144
(lp254
sg153
g243
sba(iperson
Person
p255
(dp256
g129
S'zhao229@mcmaster.ca'
p257
sg131
(lp258
g52
asg133
g48
sg135
(lp259
g4
(S'\x07\xdf\n\x07'
p260
tp261
Rp262
asg140
(lp263
g4
(S'\x07\xdf\x02\x19'
p264
tp265
Rp266
ag45
asg142
(lp267
g4
(S'\x07\xdf\n\x0e'
p268
tp269
Rp270
asg144
(lp271
sg153
g243
sba(iperson
Person
p272
(dp273
g129
S'qimfranco@gmail.com'
p274
sg131
(lp275
g122
asg133
g54
sg135
(lp276
g270
asg140
(lp277
g4
(S'\x07\xdf\x03\x04'
p278
tp279
Rp280
asg142
(lp281
sg144
(lp282
sg153
g170
sba(iperson
Person
p283
(dp284
g129
S'chunyingrong@gmail.com'
p285
sg131
(lp286
g105
asg133
g101
sg135
(lp287
sg140
(lp288
g4
(S'\x07\xdf\x02\x12'
p289
tp290
Rp291
asg142
(lp292
sg144
(lp293
(g4
(S'\x07\xdf\t\x1c'
p294
tp295
Rp296
tp297
asg153
g194
sba(iperson
Person
p298
(dp299
g129
S'ramirandaq@gmail.com'
p300
sg131
(lp301
g99
ag116
asg133
g90
sg135
(lp302
sg140
(lp303
g4
(S'\x07\xdf\x04\x0f'
p304
tp305
Rp306
asg142
(lp307
sg144
(lp308
(g4
(S'\x07\xdf\x06\x0f'
p309
tp310
Rp311
tp312
asg153
g194
sba(iperson
Person
p313
(dp314
g129
S'stijn.fias@gmail.com'
p315
sg131
(lp316
g28
asg133
g30
sg135
(lp317
sg140
(lp318
sg142
(lp319
sg144
(lp320
(g4
(S'\x07\xdf\x05\x04'
p321
tp322
Rp323
tp324
asg153
g170
sba(iperson
Person
p325
(dp326
g129
S'hongsw2@gmail.com'
p327
sg131
(lp328
g17
asg133
g20
sg135
(lp329
sg140
(lp330
g35
asg142
(lp331
sg144
(lp332
(g4
(S'\x07\xdf\t\x01'
p333
tp334
Rp335
tp336
asg153
S'undergrad'
p337
sba(iperson
Person
p338
(dp339
g129
S'duperrc@mcmaster.ca'
p340
sg131
(lp341
g7
asg133
S'Corinne Duperrouzel'
p342
sg135
(lp343
sg140
(lp344
sg142
(lp345
sg144
(lp346
(g4
(S'\x07\xdf\t\x01'
p347
tp348
Rp349
tp350
asg153
g337
sba(iperson
Person
p351
(dp352
g129
S'anandpatel98@gmail.com'
p353
sg131
(lp354
sg133
S'Anand Patel'
p355
sg135
(lp356
sg140
(lp357
sg142
(lp358
sg144
(lp359
sg153
g337
sba(iperson
Person
p360
(dp361
g129
S'dumontns@mcmaster.ca'
p362
sg131
(lp363
g65
asg133
S'Nicole Dumont'
p364
sg135
(lp365
sg140
(lp366
sg142
(lp367
sg144
(lp368
sg153
g337
sba(iperson
Person
p369
(dp370
g129
S'bigpauljohnson@gmail.com'
p371
sg131
(lp372
g35
asg133
S'Paul Johnson'
p373
sg135
(lp374
sg140
(lp375
sg142
(lp376
sg144
(lp377
(g4
(S'\x07\xdf\x01\x07'
p378
tp379
Rp380
tp381
asg153
g170
sba(iperson
Person
p382
(dp383
g129
S'cestdiego@gmail.com'
p384
sg131
(lp385
g94
asg133
g31
sg135
(lp386
sg140
(lp387
g4
(S'\x07\xdf\x02\x0b'
p388
tp389
Rp390
asg142
(lp391
sg144
(lp392
(g4
(S'\x07\xdf\x04\x13'
p393
tp394
Rp395
tp396
asg153
S'undergrad'
p397
sba(iperson
Person
p398
(dp399
g129
g12
sg131
(lp400
sg133
S'Kumru Dikmenli'
p401
sg135
(lp402
sg140
(lp403
sg142
(lp404
g139
asg144
(lp405
sg153
S'masters'
p406
sba(iperson
Person
p407
(dp408
g129
g12
sg131
g400
sg133
S'Michael Rocher'
p409
sg135
(lp410
g4
(S'\x07\xdf\t\x17'
p411
tp412
Rp413
asg140
g403
sg142
(lp414
g262
asg144
(lp415
sg153
g406
sba(iperson
Person
p416
(dp417
g129
g12
sg131
g400
sg133
S'Caitlin Lanssens'
p418
sg135
(lp419
g4
(S'\x07\xdf\t\x10'
p420
tp421
Rp422
asg140
g403
sg142
(lp423
sg144
(lp424
sg153
S'visiting'
p425
sbasS'_future_presentations'
p426
(dp427
g4
(S'\x07\xdf\t\x1e'
p428
tp429
Rp430
(dp431
g9
g401
sg11
g134
sg13
g12
sg14
g12
ssg4
(S'\x07\xdf\n\x07'
p432
tp433
Rp434
(dp435
g9
g409
sg11
g48
sg13
g12
sg14
g12
ssg4
(S'\x07\xdf\t\x17'
p436
tp437
Rp438
(dp439
g9
S'Ahmed Kamel'
p440
sg11
g409
sg13
g12
sg14
g12
ssg4
(S'\x07\xdf\t\x10'
p441
tp442
Rp443
(dp444
g9
S'Cristina Gonzalez'
p445
sg11
g418
sg13
g12
sg14
g12
ssg4
(S'\x07\xdf\n\x0e'
p446
tp447
Rp448
(dp449
g9
g48
sg11
g54
sg13
g12
sg14
g12
sssb.