(igroup_meeting
GroupMeetings
p0
(dp1
S'_past_presentations'
p2
(dp3
cdatetime
date
p4
(S'\x07\xdf\x08\x19'
p5
tp6
Rp7
(dp8
S'presenter'
p9
S'Corinne Duperrouzel'
p10
sS'chair'
p11
S''
p12
sS'file'
p13
g12
sS'title'
p14
S'Multi-Reference Nature of Plutonium Oxides'
p15
ssg4
(S'\x07\xdf\t\t'
p16
tp17
Rp18
(dp19
S'presenter'
p20
S'Paul Ayers'
p21
sS'chair'
p22
g12
sS'file'
p23
g12
sS'title'
p24
S'Outline of the Projects in Ayers Group'
p25
ssg4
(S'\x07\xdf\x02\x0b'
p26
tp27
Rp28
(dp29
S'presenter'
p30
S'Stijn Fias'
p31
sS'chair'
p32
S'Diego Berrocal'
p33
sS'file'
p34
g12
sS'title'
p35
S'Linear reasponse function and its applications in chemistry and physics'
p36
ssg4
(S'\x07\xdf\x05\x14'
p37
tp38
Rp39
(dp40
S'presenter'
p41
S'Paul Johnson'
p42
sS'chair'
p43
S'Sung Hong'
p44
sS'file'
p45
g12
sS'title'
p46
S'Something Something Geminals'
p47
ssg4
(S'\x07\xdf\x04\x16'
p48
tp49
Rp50
(dp51
g30
S'Pawel Tecmer'
p52
sg32
S'Yilin Zhao'
p53
sg34
g12
sg35
S'Orbital Entanglement in Quantum Chemistry'
p54
ssg4
(S'\x07\xdf\x03\x04'
p55
tp56
Rp57
(dp58
g30
g53
sg32
S'Marco Franco'
p59
sg34
g12
sg35
S'Dissecting bond formation of Palladium-ethene complexes'
p60
ssg4
(S'\x07\xdf\x04\x08'
p61
tp62
Rp63
(dp64
g30
S'Cristina Gonzalez'
p65
sg32
S'David Kim'
p66
sg34
g12
sg35
S'Electronic spectra of ThO and ThS'
p67
ssg4
(S'\x07\xdf\x08\x1b'
p68
tp69
Rp70
(dp71
g9
S'Jonathan La'
p72
sg11
g12
sg13
g12
sg14
S'Procrustes Analysis'
p73
ssg4
(S'\x07\xdf\x08\x1a'
p74
tp75
Rp76
(dp77
g9
S'Sung Hong'
p78
sg11
g12
sg13
g12
sg14
S'Troubleshooting SCF and Geometry convergence in supramolecular uranyl and neptunyl systems'
p79
ssg4
(S'\x07\xdf\x02\x19'
p80
tp81
Rp82
(dp83
g30
S'Kasia Boguslawski'
p84
sg32
g53
sg34
g12
sg35
S'Not so short introduction to geminals'
p85
ssg4
(S'\x07\xdf\x08\x1c'
p86
tp87
Rp88
(dp89
g9
S'Ali'
p90
sg11
g12
sg13
g12
sg14
S'Fitting Project'
p91
ssg4
(S'\x07\xdf\x05\r'
p92
tp93
Rp94
(dp95
g41
S'Chunying Rong'
p96
sg43
g52
sg45
g12
sg46
S'Developing Density Functional Reactivity Theory with Information Theory'
p97
ssg4
(S'\x07\xdf\x04\x1d'
p98
tp99
Rp100
(dp101
g30
g66
sg32
S'Matt Chan'
p102
sg34
g12
sg35
S'Beating a Horse to Death: Quasiatomic Orbitals'
p103
ssg4
(S'\x07\xdf\x04\x0f'
p104
tp105
Rp106
(dp107
g30
S'Derrick Yang'
p108
sg32
S'Ramon Miranda'
p109
sg34
g12
sg35
S'Flat plane condition and spin reactivity indicator for atoms and ions'
p110
ssg4
(S'\x07\xdf\x04\x01'
p111
tp112
Rp113
(dp114
g30
g33
sg32
g65
sg34
g12
sg35
S'Python workshop'
p115
ssg4
(S'\x07\xdf\x02\x12'
p116
tp117
Rp118
(dp119
g30
g109
sg32
g96
sg34
g12
sg35
S'Fractional particle number and chemical reactivity'
p120
ssg4
(S'\x07\xdf\x08\x14'
p121
tp122
Rp123
(dp124
g9
S'James Anderson'
p125
sg11
g12
sg13
g12
sg14
S'Relativistic Quantum Theory of Atoms in Molecules'
p126
ssg4
(S'\x07\xdf\x03\x0b'
p127
tp128
Rp129
(dp130
g30
g44
sg32
g84
sg34
g12
sg35
S'Elucidating cation-cation interaction between uranyl cations'
p131
ssg4
(S'\x07\xdf\x05\x06'
p132
tp133
Rp134
(dp135
g41
g102
sg43
S'Farnaz Heidar Zadeh'
p136
sg45
g12
sg46
S'Cholesky Decomposition and Density Fitting in HORTON'
p137
ssg4
(S'\x07\xdf\x05\x1b'
p138
tp139
Rp140
(dp141
g20
g109
sg22
S'Ahmed Kamel'
p142
sg23
g12
sg24
S'Comparisons and Models'
p143
ssg4
(S'\x07\xdf\x02\x04'
p144
tp145
Rp146
(dp147
g30
g59
sg32
g65
sg34
g12
sg35
S'Chemical reactivity at finite temperatures'
p148
sssS'_presenters'
p149
(lp150
(iperson
Person
p151
(dp152
S'_email'
p153
S'theoretical.chemistry@gmail.com'
p154
sS'_dates_presented'
p155
(lp156
g18
asS'_name'
p157
S'Paul Ayers'
p158
sS'_dates_to_chair'
p159
(lp160
g4
(S'\x07\xdf\t\x1e'
p161
tp162
Rp163
asS'_dates_chaired'
p164
(lp165
sS'_dates_to_present'
p166
(lp167
sS'_dates_away'
p168
(lp169
(g4
(S'\x07\xdf\t\n'
p170
tp171
Rp172
g4
(S'\x07\xdf\t\x14'
p173
tp174
Rp175
tp176
asS'_position'
p177
S'professor'
p178
sba(iperson
Person
p179
(dp180
g153
S'katharina.boguslawski@gmail.com'
p181
sg155
(lp182
g82
asg157
g84
sg159
(lp183
sg164
(lp184
g4
(S'\x07\xdf\x03\x0b'
p185
tp186
Rp187
asg166
(lp188
sg168
(lp189
(g4
(S'\x07\xdf\x08\x01'
p190
tp191
Rp192
tp193
asg177
S'postdoc'
p194
sba(iperson
Person
p195
(dp196
g153
S'ptecmer@gmail.com'
p197
sg155
(lp198
g50
asg157
g52
sg159
(lp199
sg164
(lp200
g94
asg166
(lp201
sg168
(lp202
(g4
(S'\x07\xdf\t\x01'
p203
tp204
Rp205
tp206
asg177
g194
sba(iperson
Person
p207
(dp208
g153
S'theoahmedkamel@gmail.com'
p209
sg155
(lp210
sg157
g142
sg159
(lp211
sg164
(lp212
g140
asg166
(lp213
g4
(S'\x07\xdf\t\x17'
p214
tp215
Rp216
asg168
(lp217
sg177
S'phd'
p218
sba(iperson
Person
p219
(dp220
g153
S'farnazhz@gmail.com'
p221
sg155
(lp222
sg157
g136
sg159
(lp223
sg164
(lp224
g134
asg166
(lp225
g39
asg168
(lp226
(g4
(S'\x07\xdf\x08\x1d'
p227
tp228
Rp229
tp230
asg177
g218
sba(iperson
Person
p231
(dp232
g153
S'talcite@gmail.com'
p233
sg155
(lp234
g134
asg157
g102
sg159
(lp235
sg164
(lp236
g100
asg166
(lp237
sg168
(lp238
sg177
g218
sba(iperson
Person
p239
(dp240
g153
S'crisbeth46@gmail.com'
p241
sg155
(lp242
g63
asg157
g65
sg159
(lp243
sg164
(lp244
g4
(S'\x07\xdf\x02\x04'
p245
tp246
Rp247
ag4
(S'\x07\xdf\x04\x01'
p248
tp249
Rp250
asg166
(lp251
g4
(S'\x07\xdf\t\x10'
p252
tp253
Rp254
asg168
(lp255
sg177
g218
sba(iperson
Person
p256
(dp257
g153
S'david.kim.91@gmail.com'
p258
sg155
(lp259
g100
asg157
g66
sg159
(lp260
sg164
(lp261
g4
(S'\x07\xdf\x04\x08'
p262
tp263
Rp264
asg166
(lp265
sg168
(lp266
sg177
S'masters'
p267
sba(iperson
Person
p268
(dp269
g153
S'yxt1991@gmail.com'
p270
sg155
(lp271
g106
asg157
g108
sg159
(lp272
sg164
(lp273
g4
(S'\x07\xdf\x04\x16'
p274
tp275
Rp276
asg166
(lp277
sg168
(lp278
sg177
g267
sba(iperson
Person
p279
(dp280
g153
S'zhao229@mcmaster.ca'
p281
sg155
(lp282
g57
asg157
g53
sg159
(lp283
g4
(S'\x07\xdf\n\x07'
p284
tp285
Rp286
asg164
(lp287
g4
(S'\x07\xdf\x02\x19'
p288
tp289
Rp290
ag50
asg166
(lp291
g4
(S'\x07\xdf\n\x0e'
p292
tp293
Rp294
asg168
(lp295
sg177
g267
sba(iperson
Person
p296
(dp297
g153
S'qimfranco@gmail.com'
p298
sg155
(lp299
g146
asg157
g59
sg159
(lp300
g294
asg164
(lp301
g4
(S'\x07\xdf\x03\x04'
p302
tp303
Rp304
asg166
(lp305
sg168
(lp306
sg177
g194
sba(iperson
Person
p307
(dp308
g153
S'chunyingrong@gmail.com'
p309
sg155
(lp310
g94
asg157
g96
sg159
(lp311
sg164
(lp312
g4
(S'\x07\xdf\x02\x12'
p313
tp314
Rp315
asg166
(lp316
sg168
(lp317
(g4
(S'\x07\xdf\t\x1c'
p318
tp319
Rp320
tp321
asg177
g218
sba(iperson
Person
p322
(dp323
g153
S'ramirandaq@gmail.com'
p324
sg155
(lp325
g118
ag140
asg157
g109
sg159
(lp326
sg164
(lp327
g4
(S'\x07\xdf\x04\x0f'
p328
tp329
Rp330
asg166
(lp331
sg168
(lp332
(g4
(S'\x07\xdf\x06\x0f'
p333
tp334
Rp335
tp336
asg177
g218
sba(iperson
Person
p337
(dp338
g153
S'stijn.fias@gmail.com'
p339
sg155
(lp340
g28
asg157
g31
sg159
(lp341
sg164
(lp342
sg166
(lp343
sg168
(lp344
(g4
(S'\x07\xdf\x05\x04'
p345
tp346
Rp347
tp348
asg177
g194
sba(iperson
Person
p349
(dp350
g153
S'hongsw2@gmail.com'
p351
sg155
(lp352
g129
ag4
(S'\x07\xdf\x08\x1a'
p353
tp354
Rp355
asg157
g44
sg159
(lp356
sg164
(lp357
g39
asg166
(lp358
sg168
(lp359
(g4
(S'\x07\xdf\t\x01'
p360
tp361
Rp362
tp363
asg177
S'undergrad'
p364
sba(iperson
Person
p365
(dp366
g153
S'duperrc@mcmaster.ca'
p367
sg155
(lp368
g76
ag7
asg157
S'Corinne Duperrouzel'
p369
sg159
(lp370
sg164
(lp371
sg166
(lp372
sg168
(lp373
(g4
(S'\x07\xdf\t\x01'
p374
tp375
Rp376
tp377
asg177
g364
sba(iperson
Person
p378
(dp379
g153
S'anandpatel98@gmail.com'
p380
sg155
(lp381
sg157
S'Anand Patel'
p382
sg159
(lp383
sg164
(lp384
sg166
(lp385
sg168
(lp386
sg177
g364
sba(iperson
Person
p387
(dp388
g153
S'dumontns@mcmaster.ca'
p389
sg155
(lp390
g70
asg157
S'Nicole Dumont'
p391
sg159
(lp392
sg164
(lp393
sg166
(lp394
sg168
(lp395
sg177
g364
sba(iperson
Person
p396
(dp397
g153
S'bigpauljohnson@gmail.com'
p398
sg155
(lp399
g39
asg157
S'Paul Johnson'
p400
sg159
(lp401
sg164
(lp402
sg166
(lp403
sg168
(lp404
(g4
(S'\x07\xdf\x01\x07'
p405
tp406
Rp407
tp408
asg177
g194
sba(iperson
Person
p409
(dp410
g153
S'cestdiego@gmail.com'
p411
sg155
(lp412
g113
asg157
g33
sg159
(lp413
sg164
(lp414
g4
(S'\x07\xdf\x02\x0b'
p415
tp416
Rp417
asg166
(lp418
sg168
(lp419
(g4
(S'\x07\xdf\x04\x13'
p420
tp421
Rp422
tp423
asg177
S'undergrad'
p424
sba(iperson
Person
p425
(dp426
g153
g12
sg155
(lp427
sg157
S'Kumru Dikmenli'
p428
sg159
(lp429
sg164
(lp430
sg166
(lp431
g163
asg168
(lp432
sg177
S'masters'
p433
sba(iperson
Person
p434
(dp435
g153
g12
sg155
g427
sg157
S'Michael Richer'
p436
sg159
(lp437
g4
(S'\x07\xdf\t\x17'
p438
tp439
Rp440
asg164
g430
sg166
(lp441
g286
asg168
(lp442
sg177
g433
sba(iperson
Person
p443
(dp444
g153
g12
sg155
g427
sg157
S'Caitlin Lanssens'
p445
sg159
(lp446
g4
(S'\x07\xdf\t\x10'
p447
tp448
Rp449
asg164
g430
sg166
(lp450
sg168
(lp451
sg177
S'visiting'
p452
sbasS'_future_presentations'
p453
(dp454
g4
(S'\x07\xdf\t\x1e'
p455
tp456
Rp457
(dp458
g20
g428
sg22
g158
sg23
g12
sg24
g12
ssg4
(S'\x07\xdf\n\x07'
p459
tp460
Rp461
(dp462
g20
g436
sg22
g53
sg23
g12
sg24
g12
ssg4
(S'\x07\xdf\t\x17'
p463
tp464
Rp465
(dp466
g20
S'Ahmed Kamel'
p467
sg22
g436
sg23
g12
sg24
g12
ssg4
(S'\x07\xdf\t\x10'
p468
tp469
Rp470
(dp471
g20
S'Cristina Gonzalez'
p472
sg22
g445
sg23
g12
sg24
S'Energy extrapolation: finding a systematic way to correct model energies'
p473
ssg4
(S'\x07\xdf\n\x0e'
p474
tp475
Rp476
(dp477
g20
g53
sg22
g59
sg23
g12
sg24
g12
sssb.