(igroup_meeting
GroupMeetings
p0
(dp1
S'_past_presentations'
p2
(dp3
cdatetime
date
p4
(S'\x07\xdf\x03\x0b'
p5
tp6
Rp7
(dp8
S'presenter'
p9
S'Sung Hong'
p10
sS'chair'
p11
S'Kasia Boguslawski'
p12
sS'file'
p13
S''
p14
sS'title'
p15
S'Elucidating cation-cation interaction between uranyl cations'
p16
ssg4
(S'\x07\xdf\x02\x0b'
p17
tp18
Rp19
(dp20
g9
S'Stijn Fias'
p21
sg11
S'Diego Berrocal'
p22
sg13
g14
sg15
S'Linear reasponse function and its applications in chemistry and physics'
p23
ssg4
(S'\x07\xdf\x05\x14'
p24
tp25
Rp26
(dp27
S'presenter'
p28
S'Paul Johnson'
p29
sS'chair'
p30
g10
sS'file'
p31
g14
sS'title'
p32
S'Something Something Geminals'
p33
ssg4
(S'\x07\xdf\x04\x16'
p34
tp35
Rp36
(dp37
g9
S'Pawel Tecmer'
p38
sg11
S'Yilin Zhao'
p39
sg13
g14
sg15
S'Orbital Entanglement in Quantum Chemistry'
p40
ssg4
(S'\x07\xdf\x03\x04'
p41
tp42
Rp43
(dp44
g9
g39
sg11
S'Marco Franco'
p45
sg13
g14
sg15
S'Dissecting bond formation of Palladium-ethene complexes'
p46
ssg4
(S'\x07\xdf\x04\x08'
p47
tp48
Rp49
(dp50
g9
S'Cristina Gonzalez'
p51
sg11
S'David Kim'
p52
sg13
g14
sg15
S'Electronic spectra of ThO and ThS'
p53
ssg4
(S'\x07\xdf\x02\x19'
p54
tp55
Rp56
(dp57
g9
g12
sg11
g39
sg13
g14
sg15
S'Not so short introduction to geminals'
p58
ssg4
(S'\x07\xdf\x04\x1d'
p59
tp60
Rp61
(dp62
g9
g52
sg11
S'Matt Chan'
p63
sg13
g14
sg15
S'Beating a Horse to Death: Quasiatomic Orbitals'
p64
ssg4
(S'\x07\xdf\x04\x0f'
p65
tp66
Rp67
(dp68
g9
S'Derrick Yang'
p69
sg11
S'Ramon Miranda'
p70
sg13
g14
sg15
S'Flat plane condition and spin reactivity indicator for atoms and ions'
p71
ssg4
(S'\x07\xdf\x04\x01'
p72
tp73
Rp74
(dp75
g9
g22
sg11
g51
sg13
g14
sg15
S'Python workshop'
p76
ssg4
(S'\x07\xdf\x02\x12'
p77
tp78
Rp79
(dp80
g9
g70
sg11
S'Chunying Rong'
p81
sg13
g14
sg15
S'Fractional particle number and chemical reactivity'
p82
ssg4
(S'\x07\xdf\x05\r'
p83
tp84
Rp85
(dp86
g28
g81
sg30
g38
sg31
g14
sg32
S'Developing Density Functional Reactivity Theory with Information Theory'
p87
ssg4
(S'\x07\xdf\x05\x06'
p88
tp89
Rp90
(dp91
g28
g63
sg30
S'Farnaz Heidar Zadeh'
p92
sg31
g14
sg32
S'Cholesky Decomposition and Density Fitting in HORTON'
p93
ssg4
(S'\x07\xdf\x02\x04'
p94
tp95
Rp96
(dp97
g9
g45
sg11
g51
sg13
g14
sg15
S'Chemical reactivity at finite temperatures'
p98
sssS'_presenters'
p99
(lp100
(iperson
Person
p101
(dp102
S'_email'
p103
S'theoretical.chemistry@gmail.com'
p104
sS'_dates_presented'
p105
(lp106
sS'_name'
p107
S'Paul Ayers'
p108
sS'_dates_to_chair'
p109
(lp110
sS'_is_away'
p111
I01
sS'_dates_chaired'
p112
(lp113
sS'_dates_to_present'
p114
(lp115
sS'_position'
p116
S'professor'
p117
sba(iperson
Person
p118
(dp119
g103
S'katharina.boguslawski@gmail.com'
p120
sg105
(lp121
g56
asg107
g12
sg109
(lp122
sg111
I01
sg112
(lp123
g4
(S'\x07\xdf\x03\x0b'
p124
tp125
Rp126
asg114
(lp127
sg116
S'postdoc'
p128
sba(iperson
Person
p129
(dp130
g103
S'ptecmer@gmail.com'
p131
sg105
(lp132
g36
asg107
g38
sg109
(lp133
sg111
I01
sg112
(lp134
g85
asg114
(lp135
sg116
g128
sba(iperson
Person
p136
(dp137
g103
S'theoahmedkamel@gmail.com'
p138
sg105
(lp139
sg107
S'Ahmed Kamel'
p140
sg109
(lp141
g4
(S'\x07\xdf\x05\x1b'
p142
tp143
Rp144
asg111
I00
sg112
(lp145
sg114
(lp146
sg116
S'phd'
p147
sba(iperson
Person
p148
(dp149
g103
S'farnazhz@gmail.com'
p150
sg105
(lp151
sg107
g92
sg109
(lp152
sg111
I01
sg112
(lp153
g90
asg114
(lp154
g26
asg116
g147
sba(iperson
Person
p155
(dp156
g103
S'talcite@gmail.com'
p157
sg105
(lp158
g90
asg107
g63
sg109
(lp159
sg111
I00
sg112
(lp160
g61
asg114
(lp161
sg116
g147
sba(iperson
Person
p162
(dp163
g103
S'crisbeth46@gmail.com'
p164
sg105
(lp165
g49
asg107
g51
sg109
(lp166
sg111
I01
sg112
(lp167
g4
(S'\x07\xdf\x02\x04'
p168
tp169
Rp170
ag4
(S'\x07\xdf\x04\x01'
p171
tp172
Rp173
asg114
(lp174
sg116
g147
sba(iperson
Person
p175
(dp176
g103
S'david.kim.91@gmail.com'
p177
sg105
(lp178
g61
asg107
g52
sg109
(lp179
sg111
I00
sg112
(lp180
g4
(S'\x07\xdf\x04\x08'
p181
tp182
Rp183
asg114
(lp184
sg116
S'masters'
p185
sba(iperson
Person
p186
(dp187
g103
S'yxt1991@gmail.com'
p188
sg105
(lp189
g67
asg107
g69
sg109
(lp190
sg111
I00
sg112
(lp191
g4
(S'\x07\xdf\x04\x16'
p192
tp193
Rp194
asg114
(lp195
sg116
g185
sba(iperson
Person
p196
(dp197
g103
S'zhao229@mcmaster.ca'
p198
sg105
(lp199
g43
asg107
g39
sg109
(lp200
sg111
I00
sg112
(lp201
g4
(S'\x07\xdf\x02\x19'
p202
tp203
Rp204
ag36
asg114
(lp205
sg116
g185
sba(iperson
Person
p206
(dp207
g103
S'qimfranco@gmail.com'
p208
sg105
(lp209
g96
asg107
g45
sg109
(lp210
sg111
I00
sg112
(lp211
g4
(S'\x07\xdf\x03\x04'
p212
tp213
Rp214
asg114
(lp215
sg116
g128
sba(iperson
Person
p216
(dp217
g103
S'chunyingrong@gmail.com'
p218
sg105
(lp219
g85
asg107
g81
sg109
(lp220
sg111
I01
sg112
(lp221
g4
(S'\x07\xdf\x02\x12'
p222
tp223
Rp224
asg114
(lp225
sg116
g147
sba(iperson
Person
p226
(dp227
g103
S'ramirandaq@gmail.com'
p228
sg105
(lp229
g79
asg107
g70
sg109
(lp230
sg111
I00
sg112
(lp231
g4
(S'\x07\xdf\x04\x0f'
p232
tp233
Rp234
asg114
(lp235
g4
(S'\x07\xdf\x05\x1b'
p236
tp237
Rp238
asg116
g147
sba(iperson
Person
p239
(dp240
g103
S'stijn.fias@gmail.com'
p241
sg105
(lp242
g19
asg107
g21
sg109
(lp243
sg111
I01
sg112
(lp244
sg114
(lp245
sg116
g128
sba(iperson
Person
p246
(dp247
g103
S'hongsw2@gmail.com'
p248
sg105
(lp249
g7
asg107
g10
sg109
(lp250
sg111
I00
sg112
(lp251
g26
asg114
(lp252
sg116
S'undergrad'
p253
sba(iperson
Person
p254
(dp255
g103
S'duperrc@mcmaster.ca'
p256
sg105
(lp257
sg107
S'Corinne Duperrouzel'
p258
sg109
(lp259
sg111
I01
sg112
(lp260
sg114
(lp261
sg116
g253
sba(iperson
Person
p262
(dp263
g103
S'anandpatel98@gmail.com'
p264
sg105
(lp265
sg107
S'Anand Patel'
p266
sg109
(lp267
sg111
I01
sg112
(lp268
sg114
(lp269
sg116
g253
sba(iperson
Person
p270
(dp271
g103
S'dumontns@mcmaster.ca'
p272
sg105
(lp273
sg107
S'Nicole Dumont'
p274
sg109
(lp275
sg111
I01
sg112
(lp276
sg114
(lp277
sg116
g253
sba(iperson
Person
p278
(dp279
g103
S'bigpauljohnson@gmail.com'
p280
sg105
(lp281
g26
asg107
S'Paul Johnson'
p282
sg109
(lp283
sg111
I01
sg112
(lp284
sg114
(lp285
sg116
g128
sba(iperson
Person
p286
(dp287
g103
S'cestdiego@gmail.com'
p288
sg105
(lp289
g74
asg107
g22
sg109
(lp290
sg111
I01
sg112
(lp291
g4
(S'\x07\xdf\x02\x0b'
p292
tp293
Rp294
asg114
(lp295
sg116
S'undergrad'
p296
sbasS'_future_presentations'
p297
(dp298
g238
(dp299
g9
g70
sg11
g140
sg13
g14
sg15
S'Comparisons and Models'
p300
sssb.