(igroup_meeting
GroupMeetings
p0
(dp1
S'_past_presentations'
p2
(dp3
cdatetime
date
p4
(S'\x07\xdf\x02\x0b'
p5
tp6
Rp7
(dp8
S'presenter'
p9
S'Stijn Fias'
p10
sS'chair'
p11
S'Diego Berrocal'
p12
sS'file'
p13
S''
p14
sS'title'
p15
S'Linear reasponse function and its applications in chemistry and physics'
p16
ssg4
(S'\x07\xdf\x04\x16'
p17
tp18
Rp19
(dp20
g9
S'Pawel Tecmer'
p21
sg11
S'Yilin Zhao'
p22
sg13
g14
sg15
S'Orbital Entanglement in Quantum Chemistry'
p23
ssg4
(S'\x07\xdf\x03\x04'
p24
tp25
Rp26
(dp27
g9
g22
sg11
S'Marco Franco'
p28
sg13
g14
sg15
S'Dissecting bond formation of Palladium-ethene complexes'
p29
ssg4
(S'\x07\xdf\x04\x08'
p30
tp31
Rp32
(dp33
g9
S'Cristina Gonzalez'
p34
sg11
S'David Kim'
p35
sg13
g14
sg15
S'Electronic spectra of ThO and ThS'
p36
ssg4
(S'\x07\xdf\x02\x19'
p37
tp38
Rp39
(dp40
g9
S'Kasia Boguslawski'
p41
sg11
g22
sg13
g14
sg15
S'Not so short introduction to geminals'
p42
ssg4
(S'\x07\xdf\x04\x1d'
p43
tp44
Rp45
(dp46
g9
g35
sg11
S'Matt Chan'
p47
sg13
g14
sg15
S'Beating a Horse to Death: Quasiatomic Orbitals'
p48
ssg4
(S'\x07\xdf\x04\x0f'
p49
tp50
Rp51
(dp52
g9
S'Derrick Yang'
p53
sg11
S'Ramon Miranda'
p54
sg13
g14
sg15
S'Flat plane condition and spin reactivity indicator for atoms and ions'
p55
ssg4
(S'\x07\xdf\x04\x01'
p56
tp57
Rp58
(dp59
g9
g12
sg11
g34
sg13
g14
sg15
S'Python workshop'
p60
ssg4
(S'\x07\xdf\x02\x12'
p61
tp62
Rp63
(dp64
g9
g54
sg11
S'Chunying Rong'
p65
sg13
g14
sg15
S'Fractional particle number and chemical reactivity'
p66
ssg4
(S'\x07\xdf\x03\x0b'
p67
tp68
Rp69
(dp70
g9
S'Sung Hong'
p71
sg11
g41
sg13
g14
sg15
S'Elucidating cation-cation interaction between uranyl cations'
p72
ssg4
(S'\x07\xdf\x02\x04'
p73
tp74
Rp75
(dp76
g9
g28
sg11
g34
sg13
g14
sg15
S'Chemical reactivity at finite temperatures'
p77
sssS'_presenters'
p78
(lp79
(iperson
Person
p80
(dp81
S'_email'
p82
S'theoretical.chemistry@gmail.com'
p83
sS'_dates_presented'
p84
(lp85
sS'_name'
p86
S'Paul Ayers'
p87
sS'_dates_to_chair'
p88
(lp89
sS'_is_away'
p90
I01
sS'_dates_chaired'
p91
(lp92
sS'_dates_to_present'
p93
(lp94
sS'_position'
p95
S'professor'
p96
sba(iperson
Person
p97
(dp98
g82
S'katharina.boguslawski@gmail.com'
p99
sg84
(lp100
g39
asg86
g41
sg88
(lp101
sg90
I00
sg91
(lp102
g4
(S'\x07\xdf\x03\x0b'
p103
tp104
Rp105
asg93
(lp106
sg95
S'postdoc'
p107
sba(iperson
Person
p108
(dp109
g82
S'ptecmer@gmail.com'
p110
sg84
(lp111
g19
asg86
g21
sg88
(lp112
g4
(S'\x07\xdf\x05\r'
p113
tp114
Rp115
asg90
I00
sg91
(lp116
sg93
(lp117
sg95
g107
sba(iperson
Person
p118
(dp119
g82
S'theoahmedkamel@gmail.com'
p120
sg84
(lp121
sg86
S'Ahmed Kamel'
p122
sg88
(lp123
sg90
I00
sg91
(lp124
sg93
(lp125
sg95
S'phd'
p126
sba(iperson
Person
p127
(dp128
g82
S'farnazhz@gmail.com'
p129
sg84
(lp130
sg86
S'Farnaz Heidar Zadeh'
p131
sg88
(lp132
g4
(S'\x07\xdf\x05\x06'
p133
tp134
Rp135
asg90
I00
sg91
(lp136
sg93
(lp137
g4
(S'\x07\xdf\x05\x14'
p138
tp139
Rp140
asg95
g126
sba(iperson
Person
p141
(dp142
g82
S'talcite@gmail.com'
p143
sg84
(lp144
sg86
g47
sg88
(lp145
sg90
I00
sg91
(lp146
g45
asg93
(lp147
g4
(S'\x07\xdf\x05\x06'
p148
tp149
Rp150
asg95
g126
sba(iperson
Person
p151
(dp152
g82
S'crisbeth46@gmail.com'
p153
sg84
(lp154
g32
asg86
g34
sg88
(lp155
sg90
I01
sg91
(lp156
g4
(S'\x07\xdf\x02\x04'
p157
tp158
Rp159
ag4
(S'\x07\xdf\x04\x01'
p160
tp161
Rp162
asg93
(lp163
sg95
g126
sba(iperson
Person
p164
(dp165
g82
S'david.kim.91@gmail.com'
p166
sg84
(lp167
g45
asg86
g35
sg88
(lp168
sg90
I00
sg91
(lp169
g4
(S'\x07\xdf\x04\x08'
p170
tp171
Rp172
asg93
(lp173
sg95
S'masters'
p174
sba(iperson
Person
p175
(dp176
g82
S'yxt1991@gmail.com'
p177
sg84
(lp178
g51
asg86
g53
sg88
(lp179
sg90
I00
sg91
(lp180
g4
(S'\x07\xdf\x04\x16'
p181
tp182
Rp183
asg93
(lp184
sg95
g174
sba(iperson
Person
p185
(dp186
g82
S'zhao229@mcmaster.ca'
p187
sg84
(lp188
g26
asg86
g22
sg88
(lp189
sg90
I00
sg91
(lp190
g4
(S'\x07\xdf\x02\x19'
p191
tp192
Rp193
ag19
asg93
(lp194
sg95
g174
sba(iperson
Person
p195
(dp196
g82
S'qimfranco@gmail.com'
p197
sg84
(lp198
g75
asg86
g28
sg88
(lp199
sg90
I00
sg91
(lp200
g4
(S'\x07\xdf\x03\x04'
p201
tp202
Rp203
asg93
(lp204
sg95
g107
sba(iperson
Person
p205
(dp206
g82
S'chunyingrong@gmail.com'
p207
sg84
(lp208
sg86
g65
sg88
(lp209
g4
(S'\x07\xdf\x05\x1b'
p210
tp211
Rp212
asg90
I00
sg91
(lp213
g4
(S'\x07\xdf\x02\x12'
p214
tp215
Rp216
asg93
(lp217
g4
(S'\x07\xdf\x05\r'
p218
tp219
Rp220
asg95
g126
sba(iperson
Person
p221
(dp222
g82
S'ramirandaq@gmail.com'
p223
sg84
(lp224
g63
asg86
g54
sg88
(lp225
sg90
I00
sg91
(lp226
g4
(S'\x07\xdf\x04\x0f'
p227
tp228
Rp229
asg93
(lp230
g4
(S'\x07\xdf\x05\x1b'
p231
tp232
Rp233
asg95
g126
sba(iperson
Person
p234
(dp235
g82
S'stijn.fias@gmail.com'
p236
sg84
(lp237
g7
asg86
g10
sg88
(lp238
sg90
I01
sg91
(lp239
sg93
(lp240
sg95
g107
sba(iperson
Person
p241
(dp242
g82
S'hongsw2@gmail.com'
p243
sg84
(lp244
g69
asg86
g71
sg88
(lp245
g4
(S'\x07\xdf\x05\x14'
p246
tp247
Rp248
asg90
I00
sg91
(lp249
sg93
(lp250
sg95
S'undergrad'
p251
sba(iperson
Person
p252
(dp253
g82
S'duperrc@mcmaster.ca'
p254
sg84
(lp255
sg86
S'Corinne Duperrouzel'
p256
sg88
(lp257
sg90
I01
sg91
(lp258
sg93
(lp259
sg95
g251
sba(iperson
Person
p260
(dp261
g82
S'anandpatel98@gmail.com'
p262
sg84
(lp263
sg86
S'Anand Patel'
p264
sg88
(lp265
sg90
I01
sg91
(lp266
sg93
(lp267
sg95
g251
sba(iperson
Person
p268
(dp269
g82
S'dumontns@mcmaster.ca'
p270
sg84
(lp271
sg86
S'Nicole Dumont'
p272
sg88
(lp273
sg90
I01
sg91
(lp274
sg93
(lp275
sg95
g251
sba(iperson
Person
p276
(dp277
g82
S'bigpauljohnson@gmail.com'
p278
sg84
(lp279
sg86
S'Paul Johnson'
p280
sg88
(lp281
sg90
I01
sg91
(lp282
sg93
(lp283
g4
(S'\x07\xdf\x05\x14'
p284
tp285
Rp286
asg95
g107
sba(iperson
Person
p287
(dp288
g82
S'cestdiego@gmail.com'
p289
sg84
(lp290
g58
asg86
g12
sg88
(lp291
sg90
I01
sg91
(lp292
g4
(S'\x07\xdf\x02\x0b'
p293
tp294
Rp295
asg93
(lp296
sg95
S'undergrad'
p297
sbasS'_future_presentations'
p298
(dp299
g220
(dp300
g9
g65
sg11
g21
sg13
g14
sg15
g14
ssg150
(dp301
g9
g47
sg11
g131
sg13
g14
sg15
g14
ssg233
(dp302
g9
g54
sg11
g65
sg13
g14
sg15
g14
ssg140
(dp303
g9
S'Paul Johnson'
p304
sg11
g71
sg13
g14
sg15
g14
sssb.