(igroup_meeting
GroupMeetings
p0
(dp1
S'_past_presentations'
p2
(dp3
cdatetime
date
p4
(S'\x07\xdf\x03\x04'
p5
tp6
Rp7
(dp8
S'presenter'
p9
S'Yilin Zhao'
p10
sS'chair'
p11
S'Marco Franco'
p12
sS'file'
p13
S''
p14
sS'title'
p15
S'Dissecting bond formation of Palladium-ethene complexes'
p16
ssg4
(S'\x07\xdf\x03\x0b'
p17
tp18
Rp19
(dp20
g9
S'Sung Hong'
p21
sg11
S'Kasia Boguslawski'
p22
sg13
g14
sg15
S'Elucidating cation-cation interaction between uranyl cations'
p23
ssg4
(S'\x07\xdf\x05\r'
p24
tp25
Rp26
(dp27
S'presenter'
p28
S'Chunying Rong'
p29
sS'chair'
p30
S'Pawel Tecmer'
p31
sS'file'
p32
g14
sS'title'
p33
S'Developing Density Functional Reactivity Theory with Information Theory'
p34
ssg4
(S'\x07\xdf\x02\x0b'
p35
tp36
Rp37
(dp38
g9
S'Stijn Fias'
p39
sg11
S'Diego Berrocal'
p40
sg13
g14
sg15
S'Linear reasponse function and its applications in chemistry and physics'
p41
ssg4
(S'\x07\xdf\x05\x14'
p42
tp43
Rp44
(dp45
g28
S'Paul Johnson'
p46
sg30
g21
sg32
g14
sg33
S'Something Something Geminals'
p47
ssg4
(S'\x07\xdf\x04\x08'
p48
tp49
Rp50
(dp51
g9
S'Cristina Gonzalez'
p52
sg11
S'David Kim'
p53
sg13
g14
sg15
S'Electronic spectra of ThO and ThS'
p54
ssg4
(S'\x07\xdf\x08\x1b'
p55
tp56
Rp57
(dp58
S'presenter'
p59
S'Jonathan La'
p60
sS'chair'
p61
g14
sS'file'
p62
g14
sS'title'
p63
S'Procrustes Analysis'
p64
ssg4
(S'\x07\xdf\x08\x19'
p65
tp66
Rp67
(dp68
g59
S'Corinne Duperrouzel'
p69
sg61
g14
sg62
g14
sg63
S'Multi-Reference Nature of Plutonium Oxides'
p70
ssg4
(S'\x07\xdf\x04\x1d'
p71
tp72
Rp73
(dp74
g9
g53
sg11
S'Matt Chan'
p75
sg13
g14
sg15
S'Beating a Horse to Death: Quasiatomic Orbitals'
p76
ssg4
(S'\x07\xdf\t\t'
p77
tp78
Rp79
(dp80
S'presenter'
p81
S'Paul Ayers'
p82
sS'chair'
p83
g14
sS'file'
p84
g14
sS'title'
p85
S'Outline of the Projects in Ayers Group'
p86
ssg4
(S'\x07\xdf\x02\x19'
p87
tp88
Rp89
(dp90
g9
g22
sg11
g10
sg13
g14
sg15
S'Not so short introduction to geminals'
p91
ssg4
(S'\x07\xdf\x04\x01'
p92
tp93
Rp94
(dp95
g9
g40
sg11
g52
sg13
g14
sg15
S'Python workshop'
p96
ssg4
(S'\x07\xdf\x05\x1b'
p97
tp98
Rp99
(dp100
g81
S'Ramon Miranda'
p101
sg83
S'Ahmed Kamel'
p102
sg84
g14
sg85
S'Comparisons and Models'
p103
ssg4
(S'\x07\xdf\x08\x1c'
p104
tp105
Rp106
(dp107
g59
S'Ali'
p108
sg61
g14
sg62
g14
sg63
S'Fitting Project'
p109
ssg4
(S'\x07\xdf\x08\x1a'
p110
tp111
Rp112
(dp113
g59
S'Sung Hong'
p114
sg61
g14
sg62
g14
sg63
S'Troubleshooting SCF and Geometry convergence in supramolecular uranyl and neptunyl systems'
p115
ssg4
(S'\x07\xdf\x04\x16'
p116
tp117
Rp118
(dp119
g9
g31
sg11
g10
sg13
g14
sg15
S'Orbital Entanglement in Quantum Chemistry'
p120
ssg4
(S'\x07\xdf\x04\x0f'
p121
tp122
Rp123
(dp124
g9
S'Derrick Yang'
p125
sg11
g101
sg13
g14
sg15
S'Flat plane condition and spin reactivity indicator for atoms and ions'
p126
ssg4
(S'\x07\xdf\t\x10'
p127
tp128
Rp129
(dp130
S'presenter'
p131
S'Cristina Gonzalez'
p132
sS'chair'
p133
S'Caitlin Lanssens'
p134
sS'file'
p135
g14
sS'title'
p136
S'Energy extrapolation: finding a systematic way to correct model energies'
p137
ssg4
(S'\x07\xdf\x02\x12'
p138
tp139
Rp140
(dp141
g9
g101
sg11
g29
sg13
g14
sg15
S'Fractional particle number and chemical reactivity'
p142
ssg4
(S'\x07\xdf\x08\x14'
p143
tp144
Rp145
(dp146
g59
S'James Anderson'
p147
sg61
g14
sg62
g14
sg63
S'Relativistic Quantum Theory of Atoms in Molecules'
p148
ssg4
(S'\x07\xdf\x05\x06'
p149
tp150
Rp151
(dp152
g28
g75
sg30
S'Farnaz Heidar Zadeh'
p153
sg32
g14
sg33
S'Cholesky Decomposition and Density Fitting in HORTON'
p154
ssg4
(S'\x07\xdf\x02\x04'
p155
tp156
Rp157
(dp158
g9
g12
sg11
g52
sg13
g14
sg15
S'Chemical reactivity at finite temperatures'
p159
sssS'_presenters'
p160
(lp161
(iperson
Person
p162
(dp163
S'_email'
p164
S'theoretical.chemistry@gmail.com'
p165
sS'_dates_presented'
p166
(lp167
g79
asS'_name'
p168
S'Paul Ayers'
p169
sS'_dates_to_chair'
p170
(lp171
g4
(S'\x07\xdf\n\x06'
p172
tp173
Rp174
asS'_dates_chaired'
p175
(lp176
sS'_dates_to_present'
p177
(lp178
sS'_dates_away'
p179
(lp180
(g4
(S'\x07\xdf\t\n'
p181
tp182
Rp183
g4
(S'\x07\xdf\t\x14'
p184
tp185
Rp186
tp187
a(g4
(S'\x07\xdf\t\x17'
p188
tp189
Rp190
g4
(S'\x07\xdf\n\x05'
p191
tp192
Rp193
tp194
a(g4
(S'\x07\xdf\t\x17'
p195
tp196
Rp197
g4
(S'\x07\xdf\n\x05'
p198
tp199
Rp200
tp201
a(g4
(S'\x07\xdf\t\x17'
p202
tp203
Rp204
g4
(S'\x07\xdf\n\x05'
p205
tp206
Rp207
tp208
a(g4
(S'\x07\xdf\t\x17'
p209
tp210
Rp211
g4
(S'\x07\xdf\n\x05'
p212
tp213
Rp214
tp215
a(g4
(S'\x07\xdf\t\x17'
p216
tp217
Rp218
g4
(S'\x07\xdf\n\x05'
p219
tp220
Rp221
tp222
a(g4
(S'\x07\xdf\t\x17'
p223
tp224
Rp225
g4
(S'\x07\xdf\n\x05'
p226
tp227
Rp228
tp229
a(g4
(S'\x07\xdf\t\x17'
p230
tp231
Rp232
g4
(S'\x07\xdf\n\x05'
p233
tp234
Rp235
tp236
a(g4
(S'\x07\xdf\t\x17'
p237
tp238
Rp239
g4
(S'\x07\xdf\n\x05'
p240
tp241
Rp242
tp243
asS'_position'
p244
S'professor'
p245
sba(iperson
Person
p246
(dp247
g164
S'katharina.boguslawski@gmail.com'
p248
sg166
(lp249
g89
asg168
g22
sg170
(lp250
sg175
(lp251
g4
(S'\x07\xdf\x03\x0b'
p252
tp253
Rp254
asg177
(lp255
sg179
(lp256
(g4
(S'\x07\xdf\x08\x01'
p257
tp258
Rp259
tp260
asg244
S'postdoc'
p261
sba(iperson
Person
p262
(dp263
g164
S'ptecmer@gmail.com'
p264
sg166
(lp265
g118
asg168
g31
sg170
(lp266
sg175
(lp267
g26
asg177
(lp268
sg179
(lp269
(g4
(S'\x07\xdf\t\x01'
p270
tp271
Rp272
tp273
asg244
g261
sba(iperson
Person
p274
(dp275
g164
S'theoahmedkamel@gmail.com'
p276
sg166
(lp277
sg168
g102
sg170
(lp278
sg175
(lp279
g99
asg177
(lp280
g4
(S'\x07\xdf\t\x16'
p281
tp282
Rp283
asg179
(lp284
sg244
S'phd'
p285
sba(iperson
Person
p286
(dp287
g164
S'farnazhz@gmail.com'
p288
sg166
(lp289
sg168
g153
sg170
(lp290
sg175
(lp291
g151
asg177
(lp292
g44
asg179
(lp293
(g4
(S'\x07\xdf\x08\x1d'
p294
tp295
Rp296
tp297
asg244
g285
sba(iperson
Person
p298
(dp299
g164
S'talcite@gmail.com'
p300
sg166
(lp301
g151
asg168
g75
sg170
(lp302
sg175
(lp303
g73
asg177
(lp304
sg179
(lp305
sg244
g285
sba(iperson
Person
p306
(dp307
g164
S'crisbeth46@gmail.com'
p308
sg166
(lp309
g50
ag129
asg168
g52
sg170
(lp310
g4
(S'\x07\xdf\t\x1d'
p311
tp312
Rp313
asg175
(lp314
g4
(S'\x07\xdf\x02\x04'
p315
tp316
Rp317
ag4
(S'\x07\xdf\x04\x01'
p318
tp319
Rp320
asg177
(lp321
sg179
(lp322
sg244
g285
sba(iperson
Person
p323
(dp324
g164
S'david.kim.91@gmail.com'
p325
sg166
(lp326
g73
asg168
g53
sg170
(lp327
g4
(S'\x07\xdf\n\r'
p328
tp329
Rp330
asg175
(lp331
g4
(S'\x07\xdf\x04\x08'
p332
tp333
Rp334
asg177
(lp335
sg179
(lp336
sg244
S'masters'
p337
sba(iperson
Person
p338
(dp339
g164
S'yxt1991@gmail.com'
p340
sg166
(lp341
g123
asg168
g125
sg170
(lp342
sg175
(lp343
g4
(S'\x07\xdf\x04\x16'
p344
tp345
Rp346
asg177
(lp347
sg179
(lp348
sg244
g337
sba(iperson
Person
p349
(dp350
g164
S'zhao229@mcmaster.ca'
p351
sg166
(lp352
g7
asg168
g10
sg170
(lp353
sg175
(lp354
g4
(S'\x07\xdf\x02\x19'
p355
tp356
Rp357
ag118
asg177
(lp358
g4
(S'\x07\xdf\n\x14'
p359
tp360
Rp361
asg179
(lp362
sg244
g337
sba(iperson
Person
p363
(dp364
g164
S'qimfranco@gmail.com'
p365
sg166
(lp366
g157
asg168
g12
sg170
(lp367
g361
asg175
(lp368
g4
(S'\x07\xdf\x03\x04'
p369
tp370
Rp371
asg177
(lp372
g330
asg179
(lp373
sg244
g261
sba(iperson
Person
p374
(dp375
g164
S'chunyingrong@gmail.com'
p376
sg166
(lp377
g26
asg168
g29
sg170
(lp378
sg175
(lp379
g4
(S'\x07\xdf\x02\x12'
p380
tp381
Rp382
asg177
(lp383
sg179
(lp384
(g4
(S'\x07\xdf\t\x1c'
p385
tp386
Rp387
tp388
asg244
g285
sba(iperson
Person
p389
(dp390
g164
S'ramirandaq@gmail.com'
p391
sg166
(lp392
g140
ag99
asg168
g101
sg170
(lp393
sg175
(lp394
g4
(S'\x07\xdf\x04\x0f'
p395
tp396
Rp397
asg177
(lp398
sg179
(lp399
(g4
(S'\x07\xdf\x06\x0f'
p400
tp401
Rp402
tp403
asg244
g285
sba(iperson
Person
p404
(dp405
g164
S'stijn.fias@gmail.com'
p406
sg166
(lp407
g37
asg168
g39
sg170
(lp408
sg175
(lp409
sg177
(lp410
sg179
(lp411
(g4
(S'\x07\xdf\x05\x04'
p412
tp413
Rp414
tp415
asg244
g261
sba(iperson
Person
p416
(dp417
g164
S'hongsw2@gmail.com'
p418
sg166
(lp419
g19
ag4
(S'\x07\xdf\x08\x1a'
p420
tp421
Rp422
asg168
g21
sg170
(lp423
sg175
(lp424
g44
asg177
(lp425
sg179
(lp426
(g4
(S'\x07\xdf\t\x01'
p427
tp428
Rp429
tp430
asg244
S'undergrad'
p431
sba(iperson
Person
p432
(dp433
g164
S'duperrc@mcmaster.ca'
p434
sg166
(lp435
g112
ag67
asg168
S'Corinne Duperrouzel'
p436
sg170
(lp437
sg175
(lp438
sg177
(lp439
sg179
(lp440
(g4
(S'\x07\xdf\t\x01'
p441
tp442
Rp443
tp444
asg244
g431
sba(iperson
Person
p445
(dp446
g164
S'anandpatel98@gmail.com'
p447
sg166
(lp448
sg168
S'Anand Patel'
p449
sg170
(lp450
sg175
(lp451
sg177
(lp452
g4
(S'\x07\xdf\n\x06'
p453
tp454
Rp455
asg179
(lp456
sg244
g431
sba(iperson
Person
p457
(dp458
g164
S'dumontns@mcmaster.ca'
p459
sg166
(lp460
g57
asg168
S'Nicole Dumont'
p461
sg170
(lp462
sg175
(lp463
sg177
(lp464
sg179
(lp465
sg244
g431
sba(iperson
Person
p466
(dp467
g164
S'bigpauljohnson@gmail.com'
p468
sg166
(lp469
g44
asg168
S'Paul Johnson'
p470
sg170
(lp471
sg175
(lp472
sg177
(lp473
sg179
(lp474
(g4
(S'\x07\xdf\x01\x07'
p475
tp476
Rp477
tp478
asg244
g261
sba(iperson
Person
p479
(dp480
g164
S'cestdiego@gmail.com'
p481
sg166
(lp482
g94
asg168
g40
sg170
(lp483
sg175
(lp484
g4
(S'\x07\xdf\x02\x0b'
p485
tp486
Rp487
asg177
(lp488
sg179
(lp489
(g4
(S'\x07\xdf\x04\x13'
p490
tp491
Rp492
tp493
asg244
S'undergrad'
p494
sba(iperson
Person
p495
(dp496
g164
g14
sg166
(lp497
sg168
S'Kumru Dikmenli'
p498
sg170
(lp499
sg175
(lp500
g129
asg177
(lp501
g4
(S'\x07\xdf\t\x1d'
p502
tp503
Rp504
asg179
(lp505
sg244
S'masters'
p506
sba(iperson
Person
p507
(dp508
g164
g14
sg166
g497
sg168
S'Michael Richer'
p509
sg170
(lp510
g4
(S'\x07\xdf\t\x16'
p511
tp512
Rp513
asg175
g500
sg177
(lp514
sg179
(lp515
sg244
g506
sba(iperson
Person
p516
(dp517
g164
g14
sg166
g497
sg168
g134
sg170
(lp518
sg175
g500
sg177
(lp519
sg179
(lp520
sg244
S'visiting'
p521
sbasS'_future_presentations'
p522
(dp523
g513
(dp524
g131
S'Ahmed Kamel'
p525
sg133
S'Michael Richer'
p526
sg135
g14
sg136
g14
ssg4
(S'\x07\xdf\n\r'
p527
tp528
Rp529
(dp530
g131
g12
sg133
g53
sg135
g14
sg136
g14
ssg4
(S'\x07\xdf\n\x14'
p531
tp532
Rp533
(dp534
g131
g10
sg133
g12
sg135
g14
sg136
g14
ssg4
(S'\x07\xdf\n\x06'
p535
tp536
Rp537
(dp538
g131
S'Anand Patel'
p539
sg133
g169
sg135
g14
sg136
g14
ssg4
(S'\x07\xdf\t\x1d'
p540
tp541
Rp542
(dp543
g131
S'Kumru Dikmenli'
p544
sg133
g52
sg135
g14
sg136
g14
sssb.