(iperson
Person
p0
(dp1
S'_email'
p2
S'theoahmedkamel@gmail.com'
p3
sS'_dates_presented'
p4
(lp5
sS'_name'
p6
S'Ahmed Kamel'
p7
sS'_dates_to_chair'
p8
(lp9
cdatetime
date
p10
(S'\x07\xdf\x0b\x18'
p11
tp12
Rp13
ag10
(S'\x07\xe0\x01\x1a'
p14
tp15
Rp16
asS'_dates_chaired'
p17
(lp18
g10
(S'\x07\xdf\x05\x1b'
p19
tp20
Rp21
asS'_dates_to_present'
p22
(lp23
g10
(S'\x07\xdf\t\x16'
p24
tp25
Rp26
ag10
(S'\x07\xdf\x0c\x16'
p27
tp28
Rp29
asS'_dates_away'
p30
(lp31
sS'_position'
p32
S'phd'
p33
sb.