(iperson
Person
p0
(dp1
S'_email'
p2
S'anandpatel98@gmail.com'
p3
sS'_dates_presented'
p4
(lp5
sS'_name'
p6
S'Anand Patel'
p7
sS'_dates_to_chair'
p8
(lp9
sS'_dates_chaired'
p10
(lp11
sS'_dates_to_present'
p12
(lp13
cdatetime
date
p14
(S'\x07\xdf\n\x06'
p15
tp16
Rp17
asS'_dates_away'
p18
(lp19
sS'_position'
p20
S'undergrad'
p21
sb.