(iperson
Person
p0
(dp1
S'_email'
p2
S'crisbeth46@gmail.com'
p3
sS'_dates_presented'
p4
(lp5
cdatetime
date
p6
(S'\x07\xdf\x04\x08'
p7
tp8
Rp9
ag6
(S'\x07\xdf\t\x10'
p10
tp11
Rp12
asS'_name'
p13
S'Cristina Gonzalez'
p14
sS'_dates_to_chair'
p15
(lp16
g6
(S'\x07\xdf\n\r'
p17
tp18
Rp19
ag6
(S'\x07\xdf\t\x1d'
p20
tp21
Rp22
ag6
(S'\x07\xdf\x0c\x1d'
p23
tp24
Rp25
asS'_dates_chaired'
p26
(lp27
g6
(S'\x07\xdf\x02\x04'
p28
tp29
Rp30
ag6
(S'\x07\xdf\x04\x01'
p31
tp32
Rp33
asS'_dates_to_present'
p34
(lp35
g6
(S'\x07\xdf\x0b\x18'
p36
tp37
Rp38
ag6
(S'\x07\xe0\x01\x0c'
p39
tp40
Rp41
asS'_dates_away'
p42
(lp43
(g6
(S'\x07\xdf\n\n'
p44
tp45
Rp46
g6
(S'\x07\xdf\n\x12'
p47
tp48
Rp49
tp50
asS'_position'
p51
S'phd'
p52
sb.