(iperson
Person
p0
(dp1
S'_email'
p2
S'crisbeth46@gmail.com'
p3
sS'_dates_presented'
p4
(lp5
cdatetime
date
p6
(S'\x07\xdf\x04\x08'
p7
tp8
Rp9
ag6
(S'\x07\xdf\t\x10'
p10
tp11
Rp12
asS'_name'
p13
S'Cristina Gonzalez'
p14
sS'_dates_to_chair'
p15
(lp16
g6
(S'\x07\xdf\n\r'
p17
tp18
Rp19
ag6
(S'\x07\xdf\x0c\x16'
p20
tp21
Rp22
asS'_dates_chaired'
p23
(lp24
g6
(S'\x07\xdf\x02\x04'
p25
tp26
Rp27
ag6
(S'\x07\xdf\x04\x01'
p28
tp29
Rp30
asS'_dates_to_present'
p31
(lp32
g6
(S'\x07\xdf\x0b\x11'
p33
tp34
Rp35
ag6
(S'\x07\xe0\x01\x1a'
p36
tp37
Rp38
asS'_dates_away'
p39
(lp40
(g6
(S'\x07\xdf\n\n'
p41
tp42
Rp43
g6
(S'\x07\xdf\n\x12'
p44
tp45
Rp46
tp47
asS'_position'
p48
S'phd'
p49
sb.