(iperson
Person
p0
(dp1
S'_email'
p2
S'david.kim.91@gmail.com'
p3
sS'_dates_presented'
p4
(lp5
cdatetime
date
p6
(S'\x07\xdf\x04\x1d'
p7
tp8
Rp9
asS'_name'
p10
S'David Kim'
p11
sS'_dates_to_chair'
p12
(lp13
g6
(S'\x07\xdf\n\r'
p14
tp15
Rp16
ag6
(S'\x07\xe0\x01\x0c'
p17
tp18
Rp19
asS'_dates_chaired'
p20
(lp21
g6
(S'\x07\xdf\x04\x08'
p22
tp23
Rp24
asS'_dates_to_present'
p25
(lp26
g6
(S'\x07\xdf\n\x1b'
p27
tp28
Rp29
ag6
(S'\x07\xdf\x0c\x1d'
p30
tp31
Rp32
asS'_dates_away'
p33
(lp34
sS'_position'
p35
S'masters'
p36
sb.