(iperson
Person
p0
(dp1
S'_email'
p2
S'yxt1991@gmail.com'
p3
sS'_dates_presented'
p4
(lp5
cdatetime
date
p6
(S'\x07\xdf\x04\x0f'
p7
tp8
Rp9
asS'_name'
p10
S'Derrick Yang'
p11
sS'_dates_to_chair'
p12
(lp13
g6
(S'\x07\xdf\n\x1b'
p14
tp15
Rp16
ag6
(S'\x07\xe0\x01\x05'
p17
tp18
Rp19
asS'_dates_chaired'
p20
(lp21
sS'_dates_to_present'
p22
(lp23
g6
(S'\x07\xdf\x0c\x01'
p24
tp25
Rp26
asS'_dates_away'
p27
(lp28
sS'_position'
p29
S'masters'
p30
sb.