(iperson
Person
p0
(dp1
S'_dates_to_chair'
p2
(lp3
sS'_dates_presented'
p4
(lp5
cdatetime
date
p6
(S'\x07\xdf\x08\x1a'
p7
tp8
Rp9
asS'_name'
p10
S'Jonathan Snow'
p11
sS'_email'
p12
S''
p13
sS'_dates_chaired'
p14
(lp15
sS'_dates_to_present'
p16
(lp17
sS'_dates_away'
p18
(lp19
sS'_position'
p20
S'undergrad'
p21
sb.