(iperson
Person
p0
(dp1
S'_email'
p2
S''
p3
sS'_dates_presented'
p4
(lp5
sS'_name'
p6
S'Kumru Dikmenli'
p7
sS'_dates_to_chair'
p8
(lp9
cdatetime
date
p10
(S'\x07\xdf\n\x14'
p11
tp12
Rp13
ag10
(S'\x07\xe0\x01\x13'
p14
tp15
Rp16
asS'_dates_chaired'
p17
(lp18
sS'_dates_to_present'
p19
(lp20
g10
(S'\x07\xdf\n\r'
p21
tp22
Rp23
ag10
(S'\x07\xdf\x0c\x1d'
p24
tp25
Rp26
asS'_dates_away'
p27
(lp28
sS'_position'
p29
S'masters'
p30
sb.