(iperson
Person
p0
(dp1
S'_email'
p2
S''
p3
sS'_dates_presented'
p4
(lp5
sS'_name'
p6
S'Kumru Dikmenli'
p7
sS'_dates_to_chair'
p8
(lp9
cdatetime
date
p10
(S'\x07\xdf\x0c\x01'
p11
tp12
Rp13
asS'_dates_chaired'
p14
(lp15
sS'_dates_to_present'
p16
(lp17
g10
(S'\x07\xdf\n\r'
p18
tp19
Rp20
ag10
(S'\x07\xdf\x0c\x16'
p21
tp22
Rp23
asS'_dates_away'
p24
(lp25
sS'_position'
p26
S'masters'
p27
sb.