(iperson
Person
p0
(dp1
S'_email'
p2
S'qimfranco@gmail.com'
p3
sS'_dates_presented'
p4
(lp5
cdatetime
date
p6
(S'\x07\xdf\x02\x04'
p7
tp8
Rp9
asS'_name'
p10
S'Marco Franco'
p11
sS'_dates_to_chair'
p12
(lp13
g6
(S'\x07\xdf\n\x14'
p14
tp15
Rp16
ag6
(S'\x07\xdf\x0c\x0f'
p17
tp18
Rp19
asS'_dates_chaired'
p20
(lp21
g6
(S'\x07\xdf\x03\x04'
p22
tp23
Rp24
asS'_dates_to_present'
p25
(lp26
g6
(S'\x07\xdf\n\r'
p27
tp28
Rp29
ag6
(S'\x07\xdf\x0c\x08'
p30
tp31
Rp32
ag6
(S'\x07\xe0\x01\x05'
p33
tp34
Rp35
asS'_dates_away'
p36
(lp37
sS'_position'
p38
S'postdoc'
p39
sb.