(iperson
Person
p0
(dp1
S'_email'
p2
S'theoretical.chemistry@gmail.com'
p3
sS'_dates_presented'
p4
(lp5
cdatetime
date
p6
(S'\x07\xdf\t\t'
p7
tp8
Rp9
asS'_name'
p10
S'Paul Ayers'
p11
sS'_dates_to_chair'
p12
(lp13
g6
(S'\x07\xdf\n\x06'
p14
tp15
Rp16
asS'_dates_chaired'
p17
(lp18
g6
(S'\x07\xdf\x08\x14'
p19
tp20
Rp21
asS'_dates_to_present'
p22
(lp23
sS'_dates_away'
p24
(lp25
(g6
(S'\x07\xdf\t\n'
p26
tp27
Rp28
g6
(S'\x07\xdf\t\x14'
p29
tp30
Rp31
tp32
a(g6
(S'\x07\xdf\t\x17'
p33
tp34
Rp35
g6
(S'\x07\xdf\n\x07'
p36
tp37
Rp38
tp39
ag39
ag39
ag39
ag39
ag39
ag39
ag39
asS'_position'
p40
S'professor'
p41
sb.