(iperson
Person
p0
(dp1
S'_email'
p2
S'ptecmer@gmail.com'
p3
sS'_dates_presented'
p4
(lp5
cdatetime
date
p6
(S'\x07\xdf\x04\x16'
p7
tp8
Rp9
asS'_name'
p10
S'Pawel Tecmer'
p11
sS'_dates_to_chair'
p12
(lp13
g6
(S'\x07\xdf\x0b\x11'
p14
tp15
Rp16
ag6
(S'\x07\xe0\x01\x0c'
p17
tp18
Rp19
asS'_dates_chaired'
p20
(lp21
g6
(S'\x07\xdf\x05\r'
p22
tp23
Rp24
asS'_dates_to_present'
p25
(lp26
g6
(S'\x07\xdf\n\x14'
p27
tp28
Rp29
ag6
(S'\x07\xdf\x0c\x0f'
p30
tp31
Rp32
asS'_dates_away'
p33
(lp34
(g6
(S'\x07\xdf\t\x01'
p35
tp36
Rp37
g6
(S'\x07\xdf\t\x14'
p38
tp39
Rp40
tp41
asS'_position'
p42
S'postdoc'
p43
sb.