(iperson
Person
p0
(dp1
S'_email'
p2
S'zhao229@mcmaster.ca'
p3
sS'_dates_presented'
p4
(lp5
cdatetime
date
p6
(S'\x07\xdf\x03\x04'
p7
tp8
Rp9
asS'_name'
p10
S'Yilin Zhao'
p11
sS'_dates_to_chair'
p12
(lp13
g6
(S'\x07\xdf\x0b\x11'
p14
tp15
Rp16
ag6
(S'\x07\xe0\x01\x13'
p17
tp18
Rp19
asS'_dates_chaired'
p20
(lp21
g6
(S'\x07\xdf\x02\x19'
p22
tp23
Rp24
ag6
(S'\x07\xdf\x04\x16'
p25
tp26
Rp27
asS'_dates_to_present'
p28
(lp29
g6
(S'\x07\xdf\n\x14'
p30
tp31
Rp32
ag6
(S'\x07\xdf\x0c\x0f'
p33
tp34
Rp35
asS'_dates_away'
p36
(lp37
sS'_position'
p38
S'masters'
p39
sb.