(iperson
Person
p0
(dp1
S'_email'
p2
S'zhao229@mcmaster.ca'
p3
sS'_dates_presented'
p4
(lp5
cdatetime
date
p6
(S'\x07\xdf\x03\x04'
p7
tp8
Rp9
asS'_name'
p10
S'Yilin Zhao'
p11
sS'_dates_to_chair'
p12
(lp13
g6
(S'\x07\xdf\x0c\x01'
p14
tp15
Rp16
asS'_dates_chaired'
p17
(lp18
g6
(S'\x07\xdf\x02\x19'
p19
tp20
Rp21
ag6
(S'\x07\xdf\x04\x16'
p22
tp23
Rp24
asS'_dates_to_present'
p25
(lp26
g6
(S'\x07\xdf\t\x1d'
p27
tp28
Rp29
ag6
(S'\x07\xdf\x0b\n'
p30
tp31
Rp32
ag6
(S'\x07\xe0\x02\x02'
p33
tp34
Rp35
asS'_dates_away'
p36
(lp37
sS'_position'
p38
S'masters'
p39
sb.