(iperson
Person
p0
(dp1
S'_email'
p2
S'theoahmedkamel@gmail.com'
p3
sS'_dates_presented'
p4
(lp5
sS'_name'
p6
S'Ahmed Kamel'
p7
sS'_dates_to_chair'
p8
(lp9
cdatetime
date
p10
(S'\x07\xdf\x05\x1b'
p11
tp12
Rp13
asS'_dates_chaired'
p14
(lp15
sS'_dates_to_present'
p16
(lp17
sS'_dates_away'
p18
(lp19
sS'_position'
p20
S'phd'
p21
sb.