(iperson
Person
p0
(dp1
S'_email'
p2
S''
p3
sS'_dates_presented'
p4
(lp5
sS'_name'
p6
S'Caitlin Lanssens'
p7
sS'_dates_to_chair'
p8
(lp9
sS'_dates_chaired'
p10
(lp11
cdatetime
date
p12
(S'\x07\xdf\t\x10'
p13
tp14
Rp15
asS'_dates_to_present'
p16
(lp17
sS'_dates_away'
p18
(lp19
sS'_position'
p20
S'visiting'
p21
sb.