(iperson
Person
p0
(dp1
S'_dates_to_chair'
p2
(lp3
cdatetime
date
p4
(S'\x07\xdf\x05\x1b'
p5
tp6
Rp7
asS'_dates_presented'
p8
(lp9
sS'_name'
p10
S'Chun Ying'
p11
sS'_email'
p12
S'chunyingrong@gmail.com'
p13
sS'_is_away'
p14
I00
sS'_dates_chaired'
p15
(lp16
g4
(S'\x07\xdf\x02\x12'
p17
tp18
Rp19
asS'_dates_to_present'
p20
(lp21
g4
(S'\x07\xdf\x05\r'
p22
tp23
Rp24
asS'_position'
p25
S'phd'
p26
sb.