(iperson
Person
p0
(dp1
S'_email'
p2
S'chunyingrong@gmail.com'
p3
sS'_dates_presented'
p4
(lp5
sS'_name'
p6
S'Chunying Rong'
p7
sS'_dates_to_chair'
p8
(lp9
cdatetime
date
p10
(S'\x07\xdf\x05\x1b'
p11
tp12
Rp13
asS'_is_away'
p14
I00
sS'_dates_chaired'
p15
(lp16
g10
(S'\x07\xdf\x02\x12'
p17
tp18
Rp19
asS'_dates_to_present'
p20
(lp21
g10
(S'\x07\xdf\x05\r'
p22
tp23
Rp24
asS'_position'
p25
S'phd'
p26
sb.