(iperson
Person
p0
(dp1
S'_email'
p2
S'duperrc@mcmaster.ca'
p3
sS'_dates_presented'
p4
(lp5
sS'_name'
p6
S'Corinne Duperrouzel'
p7
sS'_dates_to_chair'
p8
(lp9
sS'_dates_chaired'
p10
(lp11
sS'_dates_to_present'
p12
(lp13
sS'_dates_away'
p14
(lp15
(lp16
cdatetime
date
p17
(S'\x07\xdf\x05\x1a'
p18
tp19
Rp20
aasS'_position'
p21
S'undergrad'
p22
sb.