(iperson
Person
p0
(dp1
S'_email'
p2
S'duperrc@mcmaster.ca'
p3
sS'_dates_presented'
p4
(lp5
cdatetime
date
p6
(S'\x07\xdf\x08\x1a'
p7
tp8
Rp9
ag6
(S'\x07\xdf\x08\x19'
p10
tp11
Rp12
asS'_name'
p13
S'Corinne Duperrouzel'
p14
sS'_dates_to_chair'
p15
(lp16
sS'_dates_chaired'
p17
(lp18
sS'_dates_to_present'
p19
(lp20
sS'_dates_away'
p21
(lp22
(g6
(S'\x07\xdf\t\x01'
p23
tp24
Rp25
tp26
asS'_position'
p27
S'undergrad'
p28
sb.