(iperson
Person
p0
(dp1
S'_email'
p2
S'crisbeth46@gmail.com'
p3
sS'_dates_presented'
p4
(lp5
cdatetime
date
p6
(S'\x07\xdf\x04\x08'
p7
tp8
Rp9
asS'_name'
p10
S'Cristina Gonzalez'
p11
sS'_dates_to_chair'
p12
(lp13
sS'_dates_chaired'
p14
(lp15
g6
(S'\x07\xdf\x02\x04'
p16
tp17
Rp18
ag6
(S'\x07\xdf\x04\x01'
p19
tp20
Rp21
asS'_dates_to_present'
p22
(lp23
sS'_dates_away'
p24
(lp25
(lp26
g6
(S'\x07\xdf\x05\x1a'
p27
tp28
Rp29
aasS'_position'
p30
S'phd'
p31
sb.