(iperson
Person
p0
(dp1
S'_email'
p2
S'crisbeth46@gmail.com'
p3
sS'_dates_presented'
p4
(lp5
cdatetime
date
p6
(S'\x07\xdf\x04\x08'
p7
tp8
Rp9
ag6
(S'\x07\xdf\t\x10'
p10
tp11
Rp12
asS'_name'
p13
S'Cristina Gonzalez'
p14
sS'_dates_to_chair'
p15
(lp16
g6
(S'\x07\xdf\t\x1d'
p17
tp18
Rp19
asS'_dates_chaired'
p20
(lp21
g6
(S'\x07\xdf\x02\x04'
p22
tp23
Rp24
ag6
(S'\x07\xdf\x04\x01'
p25
tp26
Rp27
asS'_dates_to_present'
p28
(lp29
sS'_dates_away'
p30
(lp31
sS'_position'
p32
S'phd'
p33
sb.