(iperson
Person
p0
(dp1
S'_email'
p2
S'david.kim.91@gmail.com'
p3
sS'_dates_presented'
p4
(lp5
cdatetime
date
p6
(S'\x07\xdf\x04\x1d'
p7
tp8
Rp9
asS'_name'
p10
S'David Kim'
p11
sS'_dates_to_chair'
p12
(lp13
g6
(S'\x07\xdf\n\r'
p14
tp15
Rp16
asS'_dates_chaired'
p17
(lp18
g6
(S'\x07\xdf\x04\x08'
p19
tp20
Rp21
asS'_dates_to_present'
p22
(lp23
sS'_dates_away'
p24
(lp25
sS'_position'
p26
S'masters'
p27
sb.