(iperson
Person
p0
(dp1
S'_email'
p2
S'yxt1991@gmail.com'
p3
sS'_dates_presented'
p4
(lp5
cdatetime
date
p6
(S'\x07\xdf\x04\x0f'
p7
tp8
Rp9
asS'_name'
p10
S'Derrick Yang'
p11
sS'_dates_to_chair'
p12
(lp13
sS'_dates_chaired'
p14
(lp15
g6
(S'\x07\xdf\x04\x16'
p16
tp17
Rp18
asS'_dates_to_present'
p19
(lp20
sS'_dates_away'
p21
(lp22
sS'_position'
p23
S'masters'
p24
sb.