(iperson
Person
p0
(dp1
S'_email'
p2
S'yxt1991@gmail.com'
p3
sS'_dates_presented'
p4
(lp5
cdatetime
date
p6
(S'\x07\xdf\x04\x0f'
p7
tp8
Rp9
asS'_name'
p10
S'Derrick Yang'
p11
sS'_dates_to_chair'
p12
(lp13
sS'_is_away'
p14
I00
sS'_dates_chaired'
p15
(lp16
g6
(S'\x07\xdf\x04\x16'
p17
tp18
Rp19
asS'_dates_to_present'
p20
(lp21
sS'_position'
p22
S'masters'
p23
sb.