(iperson
Person
p0
(dp1
S'_email'
p2
S'cestdiego@gmail.com'
p3
sS'_dates_presented'
p4
(lp5
cdatetime
date
p6
(S'\x07\xdf\x04\x01'
p7
tp8
Rp9
asS'_name'
p10
S'Diego Berrocal'
p11
sS'_dates_to_chair'
p12
(lp13
sS'_is_away'
p14
I01
sS'_dates_chaired'
p15
(lp16
g6
(S'\x07\xdf\x02\x0b'
p17
tp18
Rp19
asS'_dates_to_present'
p20
(lp21
sS'_position'
p22
S'undergrad'
p23
sb.