(iperson
Person
p0
(dp1
S'_email'
p2
S'farnazhz@gmail.com'
p3
sS'_dates_presented'
p4
(lp5
sS'_name'
p6
S'Farnaz Heidar Zadeh'
p7
sS'_dates_to_chair'
p8
(lp9
cdatetime
date
p10
(S'\x07\xdf\x05\x06'
p11
tp12
Rp13
asS'_is_away'
p14
I00
sS'_dates_chaired'
p15
(lp16
sS'_dates_to_present'
p17
(lp18
g10
(S'\x07\xdf\x05\x14'
p19
tp20
Rp21
asS'_position'
p22
S'phd'
p23
sb.