(iperson
Person
p0
(dp1
S'_email'
p2
S'farnazhz@gmail.com'
p3
sS'_dates_presented'
p4
(lp5
sS'_name'
p6
S'Farnaz Heidar Zadeh'
p7
sS'_dates_to_chair'
p8
(lp9
sS'_dates_chaired'
p10
(lp11
cdatetime
date
p12
(S'\x07\xdf\x05\x06'
p13
tp14
Rp15
asS'_dates_to_present'
p16
(lp17
g12
(S'\x07\xdf\x05\x14'
p18
tp19
Rp20
asS'_dates_away'
p21
(lp22
(g12
(S'\x07\xdf\x08\x1d'
p23
tp24
Rp25
tp26
asS'_position'
p27
S'phd'
p28
sb.