(iperson
Person
p0
(dp1
S'_email'
p2
S'katharina.boguslawski@gmail.com'
p3
sS'_dates_presented'
p4
(lp5
cdatetime
date
p6
(S'\x07\xdf\x02\x19'
p7
tp8
Rp9
asS'_name'
p10
S'Kasia Boguslawski'
p11
sS'_dates_to_chair'
p12
(lp13
sS'_dates_chaired'
p14
(lp15
g6
(S'\x07\xdf\x03\x0b'
p16
tp17
Rp18
asS'_dates_to_present'
p19
(lp20
sS'_dates_away'
p21
(lp22
(lp23
g6
(S'\x07\xdf\x05\x1a'
p24
tp25
Rp26
aasS'_position'
p27
S'postdoc'
p28
sb.