(iperson
Person
p0
(dp1
S'_email'
p2
S''
p3
sS'_dates_presented'
p4
(lp5
sS'_name'
p6
S'Kumru Dikmenli'
p7
sS'_dates_to_chair'
p8
(lp9
sS'_dates_chaired'
p10
(lp11
cdatetime
date
p12
(S'\x07\xdf\t\x10'
p13
tp14
Rp15
asS'_dates_to_present'
p16
(lp17
g12
(S'\x07\xdf\t\x1d'
p18
tp19
Rp20
asS'_dates_away'
p21
(lp22
sS'_position'
p23
S'masters'
p24
sb.