(iperson
Person
p0
(dp1
S'_email'
p2
S'qimfranco@gmail.com'
p3
sS'_dates_presented'
p4
(lp5
cdatetime
date
p6
(S'\x07\xdf\x02\x04'
p7
tp8
Rp9
asS'_name'
p10
S'Marco Franco'
p11
sS'_dates_to_chair'
p12
(lp13
g6
(S'\x07\xdf\n\x14'
p14
tp15
Rp16
asS'_dates_chaired'
p17
(lp18
g6
(S'\x07\xdf\x03\x04'
p19
tp20
Rp21
asS'_dates_to_present'
p22
(lp23
g6
(S'\x07\xdf\n\r'
p24
tp25
Rp26
asS'_dates_away'
p27
(lp28
sS'_position'
p29
S'postdoc'
p30
sb.