(iperson
Person
p0
(dp1
S'_email'
p2
S'talcite@gmail.com'
p3
sS'_dates_presented'
p4
(lp5
sS'_name'
p6
S'Matt Chan'
p7
sS'_dates_to_chair'
p8
(lp9
sS'_is_away'
p10
I00
sS'_dates_chaired'
p11
(lp12
cdatetime
date
p13
(S'\x07\xdf\x04\x1d'
p14
tp15
Rp16
asS'_dates_to_present'
p17
(lp18
g13
(S'\x07\xdf\x05\x06'
p19
tp20
Rp21
asS'_position'
p22
S'phd'
p23
sb.