(iperson
Person
p0
(dp1
S'_email'
p2
S''
p3
sS'_dates_presented'
p4
(lp5
sS'_name'
p6
S'Michael Richer'
p7
sS'_dates_to_chair'
p8
(lp9
cdatetime
date
p10
(S'\x07\xdf\t\x16'
p11
tp12
Rp13
asS'_dates_chaired'
p14
(lp15
g10
(S'\x07\xdf\t\x10'
p16
tp17
Rp18
asS'_dates_to_present'
p19
(lp20
sS'_dates_away'
p21
(lp22
sS'_position'
p23
S'masters'
p24
sb.