(iperson
Person
p0
(dp1
S'_email'
p2
S'dumontns@mcmaster.ca'
p3
sS'_dates_presented'
p4
(lp5
sS'_name'
p6
S'Nicole Dumont'
p7
sS'_dates_to_chair'
p8
(lp9
sS'_dates_chaired'
p10
(lp11
sS'_dates_to_present'
p12
(lp13
sS'_dates_away'
p14
(lp15
sS'_position'
p16
S'undergrad'
p17
sb.