(iperson
Person
p0
(dp1
S'_email'
p2
S'bigpauljohnson@gmail.com'
p3
sS'_dates_presented'
p4
(lp5
cdatetime
date
p6
(S'\x07\xdf\x05\x14'
p7
tp8
Rp9
asS'_name'
p10
S'Paul Johnson'
p11
sS'_dates_to_chair'
p12
(lp13
sS'_is_away'
p14
I01
sS'_dates_chaired'
p15
(lp16
sS'_dates_to_present'
p17
(lp18
sS'_position'
p19
S'postdoc'
p20
sb.