(iperson
Person
p0
(dp1
S'_email'
p2
S'bigpauljohnson@gmail.com'
p3
sS'_dates_presented'
p4
(lp5
sS'_name'
p6
S'Paul Johnson'
p7
sS'_dates_to_chair'
p8
(lp9
sS'_is_away'
p10
I01
sS'_dates_chaired'
p11
(lp12
sS'_dates_to_present'
p13
(lp14
cdatetime
date
p15
(S'\x07\xdf\x05\x14'
p16
tp17
Rp18
asS'_position'
p19
S'postdoc'
p20
sb.