(iperson
Person
p0
(dp1
S'_email'
p2
S'theoretical.chemistry@gmail.com'
p3
sS'_dates_presented'
p4
(lp5
cdatetime
date
p6
(S'\x07\xdf\t\t'
p7
tp8
Rp9
asS'_name'
p10
S'Paul Ayers'
p11
sS'_dates_to_chair'
p12
(lp13
g6
(S'\x07\xdf\n\x06'
p14
tp15
Rp16
asS'_dates_chaired'
p17
(lp18
sS'_dates_to_present'
p19
(lp20
sS'_dates_away'
p21
(lp22
(g6
(S'\x07\xdf\t\n'
p23
tp24
Rp25
g6
(S'\x07\xdf\t\x14'
p26
tp27
Rp28
tp29
a(g6
(S'\x07\xdf\t\x17'
p30
tp31
Rp32
g6
(S'\x07\xdf\n\x05'
p33
tp34
Rp35
tp36
a(g6
(S'\x07\xdf\t\x17'
p37
tp38
Rp39
g6
(S'\x07\xdf\n\x05'
p40
tp41
Rp42
tp43
a(g6
(S'\x07\xdf\t\x17'
p44
tp45
Rp46
g6
(S'\x07\xdf\n\x05'
p47
tp48
Rp49
tp50
a(g6
(S'\x07\xdf\t\x17'
p51
tp52
Rp53
g6
(S'\x07\xdf\n\x05'
p54
tp55
Rp56
tp57
a(g6
(S'\x07\xdf\t\x17'
p58
tp59
Rp60
g6
(S'\x07\xdf\n\x05'
p61
tp62
Rp63
tp64
a(g6
(S'\x07\xdf\t\x17'
p65
tp66
Rp67
g6
(S'\x07\xdf\n\x05'
p68
tp69
Rp70
tp71
a(g6
(S'\x07\xdf\t\x17'
p72
tp73
Rp74
g6
(S'\x07\xdf\n\x05'
p75
tp76
Rp77
tp78
a(g6
(S'\x07\xdf\t\x17'
p79
tp80
Rp81
g6
(S'\x07\xdf\n\x05'
p82
tp83
Rp84
tp85
asS'_position'
p86
S'professor'
p87
sb.