(iperson
Person
p0
(dp1
S'_email'
p2
S'bigpauljohnson@gmail.com'
p3
sS'_dates_presented'
p4
(lp5
cdatetime
date
p6
(S'\x07\xdf\x05\x14'
p7
tp8
Rp9
asS'_name'
p10
S'Paul Johnson'
p11
sS'_dates_to_chair'
p12
(lp13
sS'_dates_chaired'
p14
(lp15
sS'_dates_to_present'
p16
(lp17
sS'_dates_away'
p18
(lp19
(g6
(S'\x07\xdf\x01\x07'
p20
tp21
Rp22
tp23
asS'_position'
p24
S'postdoc'
p25
sb.