(iperson
Person
p0
(dp1
S'_email'
p2
S'theoretical.chemistry@gmail.com'
p3
sS'_dates_presented'
p4
(lp5
cdatetime
date
p6
(S'\x07\xdf\t\t'
p7
tp8
Rp9
asS'_name'
p10
S'Paul Ayers'
p11
sS'_dates_to_chair'
p12
(lp13
g6
(S'\x07\xdf\t\x1e'
p14
tp15
Rp16
asS'_dates_chaired'
p17
(lp18
sS'_dates_to_present'
p19
(lp20
sS'_dates_away'
p21
(lp22
(g6
(S'\x07\xdf\t\n'
p23
tp24
Rp25
g6
(S'\x07\xdf\t\x14'
p26
tp27
Rp28
tp29
asS'_position'
p30
S'professor'
p31
sb.