(iperson
Person
p0
(dp1
S'_email'
p2
S'ptecmer@gmail.com'
p3
sS'_dates_presented'
p4
(lp5
cdatetime
date
p6
(S'\x07\xdf\x04\x16'
p7
tp8
Rp9
asS'_name'
p10
S'Pawel Tecmer'
p11
sS'_dates_to_chair'
p12
(lp13
g6
(S'\x07\xdf\x05\r'
p14
tp15
Rp16
asS'_is_away'
p17
I00
sS'_dates_chaired'
p18
(lp19
sS'_dates_to_present'
p20
(lp21
sS'_position'
p22
S'postdoc'
p23
sb.