(iperson
Person
p0
(dp1
S'_email'
p2
S'ptecmer@gmail.com'
p3
sS'_dates_presented'
p4
(lp5
cdatetime
date
p6
(S'\x07\xdf\x04\x16'
p7
tp8
Rp9
asS'_name'
p10
S'Pawel Tecmer'
p11
sS'_dates_to_chair'
p12
(lp13
sS'_dates_chaired'
p14
(lp15
g6
(S'\x07\xdf\x05\r'
p16
tp17
Rp18
asS'_dates_to_present'
p19
(lp20
sS'_dates_away'
p21
(lp22
(g6
(S'\x07\xdf\t\x01'
p23
tp24
Rp25
tp26
asS'_position'
p27
S'postdoc'
p28
sb.