(iperson
Person
p0
(dp1
S'_email'
p2
S'ramirandaq@gmail.com'
p3
sS'_dates_presented'
p4
(lp5
cdatetime
date
p6
(S'\x07\xdf\x02\x12'
p7
tp8
Rp9
ag6
(S'\x07\xdf\x05\x1b'
p10
tp11
Rp12
asS'_name'
p13
S'Ramon Miranda'
p14
sS'_dates_to_chair'
p15
(lp16
sS'_dates_chaired'
p17
(lp18
g6
(S'\x07\xdf\x04\x0f'
p19
tp20
Rp21
asS'_dates_to_present'
p22
(lp23
sS'_dates_away'
p24
(lp25
(g6
(S'\x07\xdf\x06\x0f'
p26
tp27
Rp28
tp29
asS'_position'
p30
S'phd'
p31
sb.