(iperson
Person
p0
(dp1
S'_email'
p2
S'ramirandaq@gmail.com'
p3
sS'_dates_presented'
p4
(lp5
cdatetime
date
p6
(S'\x07\xdf\x02\x12'
p7
tp8
Rp9
asS'_name'
p10
S'Ramon Miranda'
p11
sS'_dates_to_chair'
p12
(lp13
sS'_dates_chaired'
p14
(lp15
g6
(S'\x07\xdf\x04\x0f'
p16
tp17
Rp18
asS'_dates_to_present'
p19
(lp20
g6
(S'\x07\xdf\x05\x1b'
p21
tp22
Rp23
asS'_dates_away'
p24
(lp25
sS'_position'
p26
S'phd'
p27
sb.