(iperson
Person
p0
(dp1
S'_email'
p2
S'stijn.fias@gmail.com'
p3
sS'_dates_presented'
p4
(lp5
cdatetime
date
p6
(S'\x07\xdf\x02\x0b'
p7
tp8
Rp9
asS'_name'
p10
S'Stijn Fias'
p11
sS'_dates_to_chair'
p12
(lp13
sS'_dates_chaired'
p14
(lp15
sS'_dates_to_present'
p16
(lp17
sS'_dates_away'
p18
(lp19
(lp20
g6
(S'\x07\xdf\x05\x1a'
p21
tp22
Rp23
aasS'_position'
p24
S'postdoc'
p25
sb.