(iperson
Person
p0
(dp1
S'_email'
p2
S'hongsw2@gmail.com'
p3
sS'_dates_presented'
p4
(lp5
cdatetime
date
p6
(S'\x07\xdf\x03\x0b'
p7
tp8
Rp9
ag6
(S'\x07\xdf\x08\x1a'
p10
tp11
Rp12
asS'_name'
p13
S'Sung Hong'
p14
sS'_dates_to_chair'
p15
(lp16
sS'_dates_chaired'
p17
(lp18
g6
(S'\x07\xdf\x05\x14'
p19
tp20
Rp21
asS'_dates_to_present'
p22
(lp23
sS'_dates_away'
p24
(lp25
(g6
(S'\x07\xdf\t\x01'
p26
tp27
Rp28
tp29
asS'_position'
p30
S'undergrad'
p31
sb.