(iperson
Person
p0
(dp1
S'_email'
p2
S'zhao229@mcmaster.ca'
p3
sS'_dates_presented'
p4
(lp5
cdatetime
date
p6
(S'\x07\xdf\x03\x04'
p7
tp8
Rp9
asS'_name'
p10
S'Yilin Zhao'
p11
sS'_dates_to_chair'
p12
(lp13
sS'_dates_chaired'
p14
(lp15
g6
(S'\x07\xdf\x02\x19'
p16
tp17
Rp18
ag6
(S'\x07\xdf\x04\x16'
p19
tp20
Rp21
asS'_dates_to_present'
p22
(lp23
g6
(S'\x07\xdf\n\x14'
p24
tp25
Rp26
asS'_dates_away'
p27
(lp28
sS'_position'
p29
S'masters'
p30
sb.