(iperson
Person
p0
(dp1
S'_email'
p2
S'zhao229@mcmaster.ca'
p3
sS'_dates_presented'
p4
(lp5
cdatetime
date
p6
(S'\x07\xdf\x03\x04'
p7
tp8
Rp9
asS'_name'
p10
S'Yilin Zhao'
p11
sS'_dates_to_chair'
p12
(lp13
sS'_is_away'
p14
I00
sS'_dates_chaired'
p15
(lp16
g6
(S'\x07\xdf\x02\x19'
p17
tp18
Rp19
ag6
(S'\x07\xdf\x04\x16'
p20
tp21
Rp22
asS'_dates_to_present'
p23
(lp24
sS'_position'
p25
S'masters'
p26
sb.